(lp0
(S'book'
p1
I00
tp2
a(S'read'
p3
I00
tp4
a(S'story'
p5
I00
tp6
a(S'not'
p7
I00
tp8
a(S'one'
p9
I00
tp10
a(S'good'
p11
I00
tp12
a(S'more'
p13
I00
tp14
a(S'like'
p15
I00
tp16
a(S'character'
p17
I00
tp18
a(S'great'
p19
I00
tp20
a(S'time'
p21
I00
tp22
a(S'would'
p23
I00
tp24
a(S'some'
p25
I00
tp26
a(S'well'
p27
I00
tp28
a(S'author'
p29
I00
tp30
a(S'get'
p31
I00
tp32
a(S'really'
p33
I00
tp34
a(S'reading'
p35
I00
tp36
a(Vlove
p37
I00
tp38
a(Vstar
p39
I00
tp40
a(S'first'
p41
I00
tp42
a(S'make'
p43
I00
tp44
a(S'much'
p45
I00
tp46
a(S'no'
p47
I00
tp48
a(Vnovel
p49
I00
tp50
a(S'short'
p51
I00
tp52
a(Vlife
p53
I00
tp54
a(S'series'
p55
I00
tp56
a(S'way'
p57
I00
tp58
a(S'kindle'
p59
I00
tp60
a(S'also'
p61
I00
tp62
a(S'written'
p63
I00
tp64
a(S'work'
p65
I00
tp66
a(S'lot'
p67
I00
tp68
a(S'don'
p69
I00
tp70
a(S'even'
p71
I00
tp72
a(S'most'
p73
I00
tp74
a(S'end'
p75
I00
tp76
a(Vrecipe
p77
I00
tp78
a(S'new'
p79
I00
tp80
a(S'better'
p81
I00
tp82
a(S'reader'
p83
I00
tp84
a(S'many'
p85
I00
tp86
a(S'year'
p87
I00
tp88
a(S'found'
p89
I00
tp90
a(S'could'
p91
I00
tp92
a(S'interesting'
p93
I00
tp94
a(Vknow
p95
I00
tp96
a(S'want'
p97
I00
tp98
a(Vgo
p99
I00
tp100
a(S'two'
p101
I00
tp102
a(S'fan'
p103
I00
tp104
a(S'little'
p105
I00
tp106
a(S'find'
p107
I00
tp108
a(S'easy'
p109
I00
tp110
a(S'best'
p111
I00
tp112
a(S'writing'
p113
I00
tp114
a(S'see'
p115
I00
tp116
a(S'enjoyed'
p117
I00
tp118
a(S'recommend'
p119
I00
tp120
a(S'another'
p121
I00
tp122
a(S'page'
p123
I00
tp124
a(S'maul'
p125
I00
tp126
a(S'darth'
p127
I00
tp128
a(S'war'
p129
I00
tp130
a(S'take'
p131
I00
tp132
a(Vthing
p133
I00
tp134
a(S'think'
p135
I00
tp136
a(S'give'
p137
I00
tp138
a(S'l'
p139
I00
tp140
a(S'still'
p141
I00
tp142
a(S'action'
p143
I00
tp144
a(S'never'
p145
I00
tp146
a(S'enjoy'
p147
I00
tp148
a(S'amour'
p149
I00
tp150
a(Vsay
p151
I00
tp152
a(S'back'
p153
I00
tp154
a(S'didn'
p155
I00
tp156
a(S'writer'
p157
I00
tp158
a(S'plot'
p159
I00
tp160
a(Vfamily
p161
I00
tp162
a(S'need'
p163
I00
tp164
a(S'however'
p165
I00
tp166
a(S'college'
p167
I00
tp168
a(Vcome
p169
I00
tp170
a(S'few'
p171
I00
tp172
a(S'people'
p173
I00
tp174
a(S'man'
p175
I00
tp176
a(S'always'
p177
I00
tp178
a(S'long'
p179
I00
tp180
a(S'put'
p181
I00
tp182
a(S'bit'
p183
I00
tp184
a(S'enough'
p185
I00
tp186
a(S'old'
p187
I00
tp188
a(S'world'
p189
I00
tp190
a(S'since'
p191
I00
tp192
a(S'feel'
p193
I00
tp194
a(S'made'
p195
I00
tp196
a(S'though'
p197
I00
tp198
a(S'anything'
p199
I00
tp200
a(S'may'
p201
I00
tp202
a(S'hard'
p203
I00
tp204
a(S'information'
p205
I00
tp206
a(S'part'
p207
I00
tp208
a(S'thought'
p209
I00
tp210
a(S'going'
p211
I00
tp212
a(S'price'
p213
I00
tp214
a(S'worth'
p215
I00
tp216
a(S'louis'
p217
I00
tp218
a(S'keep'
p219
I00
tp220
a(S'without'
p221
I00
tp222
a(S'looking'
p223
I00
tp224
a(S'actually'
p225
I00
tp226
a(S'bad'
p227
I00
tp228
a(Vpoint
p229
I00
tp230
a(Vproblem
p231
I00
tp232
a(S'something'
p233
I00
tp234
a(S'different'
p235
I00
tp236
a(S'must'
p237
I00
tp238
a(S'mr'
p239
I00
tp240
a(S'got'
p241
I00
tp242
a(S'style'
p243
I00
tp244
a(Vrelationship
p245
I00
tp246
a(S'set'
p247
I00
tp248
a(S'doesn'
p249
I00
tp250
a(S'mind'
p251
I00
tp252
a(S'right'
p253
I00
tp254
a(S'real'
p255
I00
tp256
a(Vline
p257
I00
tp258
a(S'every'
p259
I00
tp260
a(S'version'
p261
I00
tp262
a(Vmovie
p263
I00
tp264
a(S'edition'
p265
I00
tp266
a(S'history'
p267
I00
tp268
a(Vlook
p269
I00
tp270
a(S'place'
p271
I00
tp272
a(S'fun'
p273
I00
tp274
a(S'rather'
p275
I00
tp276
a(S'bought'
p277
I00
tp278
a(S'student'
p279
I00
tp280
a(S'translation'
p281
I00
tp282
a(S'anyone'
p283
I00
tp284
a(S'idea'
p285
I00
tp286
a(S'use'
p287
I00
tp288
a(S'highly'
p289
I00
tp290
a(S'help'
p291
I00
tp292
a(Vmystery
p293
I00
tp294
a(S'several'
p295
I00
tp296
a(S'far'
p297
I00
tp298
a(S'fact'
p299
I00
tp300
a(S'order'
p301
I00
tp302
a(S'loved'
p303
I00
tp304
a(S'case'
p305
I00
tp306
a(S'trek'
p307
I00
tp308
a(Vshow
p309
I00
tp310
a(S'play'
p311
I00
tp312
a(S'next'
p313
I00
tp314
a(S'true'
p315
I00
tp316
a(Vreview
p317
I00
tp318
a(S'nice'
p319
I00
tp320
a(Vchild
p321
I00
tp322
a(S'try'
p323
I00
tp324
a(S'douglas'
p325
I00
tp326
a(S'started'
p327
I00
tp328
a(Vside
p329
I00
tp330
a(Vday
p331
I00
tp332
a(S'buy'
p333
I00
tp334
a(S'friend'
p335
I00
tp336
a(S'probably'
p337
I00
tp338
a(S'start'
p339
I00
tp340
a(S'jedi'
p341
I00
tp342
a(S'tale'
p343
I00
tp344
a(Vcook
p345
I00
tp346
a(S'woman'
p347
I00
tp348
a(S'e'
p349
I00
tp350
a(S'understand'
p351
I00
tp352
a(S'instead'
p353
I00
tp354
a(S'favorite'
p355
I00
tp356
a(Vship
p357
I00
tp358
a(S'daughter'
p359
I00
tp360
a(S'main'
p361
I00
tp362
a(Vu
p363
I00
tp364
a(S'cookbook'
p365
I00
tp366
a(S'sure'
p367
I00
tp368
a(S'someone'
p369
I00
tp370
a(S'last'
p371
I00
tp372
a(S'half'
p373
I00
tp374
a(S'used'
p375
I00
tp376
a(S'felt'
p377
I00
tp378
a(S'simple'
p379
I00
tp380
a(S'quick'
p381
I00
tp382
a(S'might'
p383
I00
tp384
a(S'second'
p385
I00
tp386
a(S'around'
p387
I00
tp388
a(S'away'
p389
I00
tp390
a(S'ever'
p391
I00
tp392
a(S'almost'
p393
I00
tp394
a(S'crime'
p395
I00
tp396
a(S'men'
p397
I00
tp398
a(S'son'
p399
I00
tp400
a(S'fast'
p401
I00
tp402
a(S'done'
p403
I00
tp404
a(S'course'
p405
I00
tp406
a(S'reason'
p407
I00
tp408
a(S'won'
p409
I00
tp410
a(S'liked'
p411
I00
tp412
a(S'seem'
p413
I00
tp414
a(S'said'
p415
I00
tp416
a(S'least'
p417
I00
tp418
a(S'collection'
p419
I00
tp420
a(S'detail'
p421
I00
tp422
a(S'excellent'
p423
I00
tp424
a(S'fiction'
p425
I00
tp426
a(Vwestern
p427
I00
tp428
a(S'person'
p429
I00
tp430
a(S'wonderful'
p431
I00
tp432
a(S'especially'
p433
I00
tp434
a(S'nothing'
p435
I00
tp436
a(S'cooking'
p437
I00
tp438
a(S'wish'
p439
I00
tp440
a(S'quite'
p441
I00
tp442
a(S'science'
p443
I00
tp444
a(Vword
p445
I00
tp446
a(S'pretty'
p447
I00
tp448
a(S'classic'
p449
I00
tp450
a(S'mary'
p451
I00
tp452
a(S'published'
p453
I00
tp454
a(S'others'
p455
I00
tp456
a(S'healthy'
p457
I00
tp458
a(S'enjoyable'
p459
I00
tp460
a(S'full'
p461
I00
tp462
a(S'death'
p463
I00
tp464
a(Vevent
p465
I00
tp466
a(S'quot'
p467
I00
tp468
a(S'money'
p469
I00
tp470
a(S'development'
p471
I00
tp472
a(S'big'
p473
I00
tp474
a(S'free'
p475
I00
tp476
a(S'everything'
p477
I00
tp478
a(S'getting'
p479
I00
tp480
a(S'writes'
p481
I00
tp482
a(S'three'
p483
I00
tp484
a(S'write'
p485
I00
tp486
a(S'genre'
p487
I00
tp488
a(Vending
p489
I00
tp490
a(Vbasic
p491
I00
tp492
a(S'deal'
p493
I00
tp494
a(S'maybe'
p495
I00
tp496
a(S'believe'
p497
I00
tp498
a(S'often'
p499
I00
tp500
a(Vle
p501
I00
tp502
a(Vadventure
p503
I00
tp504
a(S'solo'
p505
I00
tp506
a(S'sense'
p507
I00
tp508
a(S'self'
p509
I00
tp510
a(S'sex'
p511
I00
tp512
a(S'high'
p513
I00
tp514
a(S'able'
p515
I00
tp516
a(S'definitely'
p517
I00
tp518
a(S'wanted'
p519
I00
tp520
a(S'longer'
p521
I00
tp522
a(S'follow'
p523
I00
tp524
a(S'wasn'
p525
I00
tp526
a(S'along'
p527
I00
tp528
a(S'cover'
p529
I00
tp530
a(S'came'
p531
I00
tp532
a(S'finish'
p533
I00
tp534
a(S'overall'
p535
I00
tp536
a(Vtell
p537
I00
tp538
a(S'left'
p539
I00
tp540
a(S'yet'
p541
I00
tp542
a(S'everyone'
p543
I00
tp544
a(S'already'
p545
I00
tp546
a(S'fantasy'
p547
I00
tp548
a(S'given'
p549
I00
tp550
a(S'class'
p551
I00
tp552
a(S'perhaps'
p553
I00
tp554
a(S'master'
p555
I00
tp556
a(S'later'
p557
I00
tp558
a(S'zahn'
p559
I00
tp560
a(Vinsight
p561
I00
tp562
a(S'john'
p563
I00
tp564
a(S'interested'
p565
I00
tp566
a(S'together'
p567
I00
tp568
a(S'else'
p569
I00
tp570
a(S'police'
p571
I00
tp572
a(S'novella'
p573
I00
tp574
a(S'leonard'
p575
I00
tp576
a(S'seems'
p577
I00
tp578
a(S'known'
p579
I00
tp580
a(S'kind'
p581
I00
tp582
a(S'attention'
p583
I00
tp584
a(Vquestion
p585
I00
tp586
a(S'city'
p587
I00
tp588
a(S'power'
p589
I00
tp590
a(S'whole'
p591
I00
tp592
a(S'couple'
p593
I00
tp594
a(S'quest'
p595
I00
tp596
a(S'ago'
p597
I00
tp598
a(S'young'
p599
I00
tp600
a(S'scene'
p601
I00
tp602
a(S'evil'
p603
I00
tp604
a(Vguy
p605
I00
tp606
a(S'title'
p607
I00
tp608
a(S'michael'
p609
I00
tp610
a(S'isn'
p611
I00
tp612
a(S'making'
p613
I00
tp614
a(S'fall'
p615
I00
tp616
a(S'knowledge'
p617
I00
tp618
a(S'school'
p619
I00
tp620
a(S'murder'
p621
I00
tp622
a(S'gave'
p623
I00
tp624
a(S'theory'
p625
I00
tp626
a(S'george'
p627
I00
tp628
a(S'political'
p629
I00
tp630
a(S'example'
p631
I00
tp632
a(S'turn'
p633
I00
tp634
a(S'learn'
p635
I00
tp636
a(S'perfect'
p637
I00
tp638
a(S'strong'
p639
I00
tp640
a(S'hand'
p641
I00
tp642
a(S'using'
p643
I00
tp644
a(S'content'
p645
I00
tp646
a(S'killer'
p647
I00
tp648
a(S'text'
p649
I00
tp650
a(S'add'
p651
I00
tp652
a(S'chapter'
p653
I00
tp654
a(S'gaskell'
p655
I00
tp656
a(S'hunter'
p657
I00
tp658
a(S'happy'
p659
I00
tp660
a(S'working'
p661
I00
tp662
a(S'past'
p663
I00
tp664
a(S'beautiful'
p665
I00
tp666
a(S'number'
p667
I00
tp668
a(S'introduction'
p669
I00
tp670
a(S'let'
p671
I00
tp672
a(S'early'
p673
I00
tp674
a(S'stay'
p675
I00
tp676
a(S'type'
p677
I00
tp678
a(S'interest'
p679
I00
tp680
a(S'human'
p681
I00
tp682
a(S'father'
p683
I00
tp684
a(S'disappointed'
p685
I00
tp686
a(S'important'
p687
I00
tp688
a(S'mean'
p689
I00
tp690
a(S'criminal'
p691
I00
tp692
a(S'finished'
p693
I00
tp694
a(S'entertaining'
p695
I00
tp696
a(Vterm
p697
I00
tp698
a(S'andrew'
p699
I00
tp700
a(S'glad'
p701
I00
tp702
a(S'store'
p703
I00
tp704
a(S'wrote'
p705
I00
tp706
a(S'sort'
p707
I00
tp708
a(S'view'
p709
I00
tp710
a(S'universe'
p711
I00
tp712
a(Vhero
p713
I00
tp714
a(Vingredient
p715
I00
tp716
a(Vsituation
p717
I00
tp718
a(S'plan'
p719
I00
tp720
a(S'paperback'
p721
I00
tp722
a(S'space'
p723
I00
tp724
a(S'language'
p725
I00
tp726
a(S'trying'
p727
I00
tp728
a(Vkid
p729
I00
tp730
a(S'form'
p731
I00
tp732
a(S'effort'
p733
I00
tp734
a(S'easily'
p735
I00
tp736
a(S'century'
p737
I00
tp738
a(S'name'
p739
I00
tp740
a(S'job'
p741
I00
tp742
a(S'present'
p743
I00
tp744
a(S'english'
p745
I00
tp746
a(S'role'
p747
I00
tp748
a(S'experience'
p749
I00
tp750
a(S'sometimes'
p751
I00
tp752
a(S'haven'
p753
I00
tp754
a(S'become'
p755
I00
tp756
a(S'told'
p757
I00
tp758
a(S'dr'
p759
I00
tp760
a(S'care'
p761
I00
tp762
a(S'couldn'
p763
I00
tp764
a(Vcall
p765
I00
tp766
a(S'wonder'
p767
I00
tp768
a(S'forward'
p769
I00
tp770
a(S'although'
p771
I00
tp772
a(Vpicture
p773
I00
tp774
a(S'expect'
p775
I00
tp776
a(Vsurvivor
p777
I00
tp778
a(Vresult
p779
I00
tp780
a(S'han'
p781
I00
tp782
a(S'leave'
p783
I00
tp784
a(S'useful'
p785
I00
tp786
a(S'original'
p787
I00
tp788
a(S'sce'
p789
I00
tp790
a(S'single'
p791
I00
tp792
a(S'error'
p793
I00
tp794
a(S'age'
p795
I00
tp796
a(Velement
p797
I00
tp798
a(S'ebook'
p799
I00
tp800
a(S'cannot'
p801
I00
tp802
a(S'clear'
p803
I00
tp804
a(S'ylesia'
p805
I00
tp806
a(S'personal'
p807
I00
tp808
a(S'wait'
p809
I00
tp810
a(S'girl'
p811
I00
tp812
a(S'either'
p813
I00
tp814
a(S'perspective'
p815
I00
tp816
a(S'middle'
p817
I00
tp818
a(S'fine'
p819
I00
tp820
a(S'throughout'
p821
I00
tp822
a(S'general'
p823
I00
tp824
a(Vtip
p825
I00
tp826
a(S'setting'
p827
I00
tp828
a(S'west'
p829
I00
tp830
a(S'tv'
p831
I00
tp832
a(S'small'
p833
I00
tp834
a(Vsection
p835
I00
tp836
a(S'funny'
p837
I00
tp838
a(S'seemed'
p839
I00
tp840
a(Vmove
p841
I00
tp842
a(S'kitchen'
p843
I00
tp844
a(S'live'
p845
I00
tp846
a(S'begin'
p847
I00
tp848
a(S'martin'
p849
I00
tp850
a(S'whose'
p851
I00
tp852
a(S'third'
p853
I00
tp854
a(Vspoiler
p855
I00
tp856
a(S'living'
p857
I00
tp858
a(S'among'
p859
I00
tp860
a(S'elmore'
p861
I00
tp862
a(S'storyline'
p863
I00
tp864
a(S'chewbacca'
p865
I00
tp866
a(S'food'
p867
I00
tp868
a(S'r'
p869
I00
tp870
a(Vlist
p871
I00
tp872
a(S'mission'
p873
I00
tp874
a(S'c'
p875
I00
tp876
a(Vserial
p877
I00
tp878
a(S'material'
p879
I00
tp880
a(S'recommended'
p881
I00
tp882
a(S'entire'
p883
I00
tp884
a(S'romance'
p885
I00
tp886
a(S'historical'
p887
I00
tp888
a(Vbattle
p889
I00
tp890
a(Vtwist
p891
I00
tp892
a(S'force'
p893
I00
tp894
a(S'crew'
p895
I00
tp896
a(S'modern'
p897
I00
tp898
a(S'subject'
p899
I00
tp900
a(S'yes'
p901
I00
tp902
a(S'coming'
p903
I00
tp904
a(S'beginning'
p905
I00
tp906
a(S'austrian'
p907
I00
tp908
a(S'under'
p909
I00
tp910
a(S'jack'
p911
I00
tp912
a(S'description'
p913
I00
tp914
a(S'amazon'
p915
I00
tp916
a(S'period'
p917
I00
tp918
a(S'wife'
p919
I00
tp920
a(Vv
p921
I00
tp922
a(S'wrong'
p923
I00
tp924
a(S'shadow'
p925
I00
tp926
a(S'understanding'
p927
I00
tp928
a(S'awesome'
p929
I00
tp930
a(S'dark'
p931
I00
tp932
a(S'complete'
p933
I00
tp934
a(S'major'
p935
I00
tp936
a(S'available'
p937
I00
tp938
a(S'fascinating'
p939
I00
tp940
a(S'five'
p941
I00
tp942
a(Vstudy
p943
I00
tp944
a(S'recovery'
p945
I00
tp946
a(S'change'
p947
I00
tp948
a(S'fbi'
p949
I00
tp950
a(S'market'
p951
I00
tp952
a(S'exciting'
p953
I00
tp954
a(S'fool'
p955
I00
tp956
a(S'issue'
p957
I00
tp958
a(S'american'
p959
I00
tp960
a(S'game'
p961
I00
tp962
a(Vblock
p963
I00
tp964
a(S'computer'
p965
I00
tp966
a(S'meet'
p967
I00
tp968
a(Vquality
p969
I00
tp970
a(S'based'
p971
I00
tp972
a(S'profiling'
p973
I00
tp974
a(S'lost'
p975
I00
tp976
a(S'purchase'
p977
I00
tp978
a(S'matter'
p979
I00
tp980
a(S'decided'
p981
I00
tp982
a(S'balance'
p983
I00
tp984
a(S'planet'
p985
I00
tp986
a(Vhead
p987
I00
tp988
a(S'today'
p989
I00
tp990
a(Vability
p991
I00
tp992
a(S'york'
p993
I00
tp994
a(S'empire'
p995
I00
tp996
a(S'lead'
p997
I00
tp998
a(S'four'
p999
I00
tp1000
a(S'feeling'
p1001
I00
tp1002
a(Vletter
p1003
I00
tp1004
a(S'episode'
p1005
I00
tp1006
a(S'nature'
p1007
I00
tp1008
a(S'brilliant'
p1009
I00
tp1010
a(S'future'
p1011
I00
tp1012
a(S'gone'
p1013
I00
tp1014
a(S'england'
p1015
I00
tp1016
a(S'format'
p1017
I00
tp1018
a(S'hope'
p1019
I00
tp1020
a(S'destiny'
p1021
I00
tp1022
a(S'appreciate'
p1023
I00
tp1024
a(S'certainly'
p1025
I00
tp1026
a(S'trouble'
p1027
I00
tp1028
a(S'heart'
p1029
I00
tp1030
a(S'learning'
p1031
I00
tp1032
a(S'etc'
p1033
I00
tp1034
a(S'soon'
p1035
I00
tp1036
a(S'dialogue'
p1037
I00
tp1038
a(S'becomes'
p1039
I00
tp1040
a(S'including'
p1041
I00
tp1042
a(S'career'
p1043
I00
tp1044
a(S'skill'
p1045
I00
tp1046
a(S'home'
p1047
I00
tp1048
a(Vpiece
p1049
I00
tp1050
a(S'seen'
p1051
I00
tp1052
a(Vparent
p1053
I00
tp1054
a(S'purchased'
p1055
I00
tp1056
a(S'extremely'
p1057
I00
tp1058
a(S'common'
p1059
I00
tp1060
a(S'individual'
p1061
I00
tp1062
a(S'sexual'
p1063
I00
tp1064
a(S'usual'
p1065
I00
tp1066
a(S'took'
p1067
I00
tp1068
a(S'discovery'
p1069
I00
tp1070
a(S'complex'
p1071
I00
tp1072
a(S'pick'
p1073
I00
tp1074
a(Vfocus
p1075
I00
tp1076
a(S'federation'
p1077
I00
tp1078
a(S'level'
p1079
I00
tp1080
a(S'copy'
p1081
I00
tp1082
a(S'included'
p1083
I00
tp1084
a(S'art'
p1085
I00
tp1086
a(S'helpful'
p1087
I00
tp1088
a(S'fit'
p1089
I00
tp1090
a(S'following'
p1091
I00
tp1092
a(S'open'
p1093
I00
tp1094
a(Vmeal
p1095
I00
tp1096
a(S'sci'
p1097
I00
tp1098
a(S'guess'
p1099
I00
tp1100
a(S'fire'
p1101
I00
tp1102
a(S'upon'
p1103
I00
tp1104
a(S'sister'
p1105
I00
tp1106
a(S'provide'
p1107
I00
tp1108
a(S'kept'
p1109
I00
tp1110
a(S'ended'
p1111
I00
tp1112
a(S'mostly'
p1113
I00
tp1114
a(S'lumpy'
p1115
I00
tp1116
a(S'area'
p1117
I00
tp1118
a(S'learned'
p1119
I00
tp1120
a(S'picard'
p1121
I00
tp1122
a(S'within'
p1123
I00
tp1124
a(S'group'
p1125
I00
tp1126
a(S'denning'
p1127
I00
tp1128
a(S'library'
p1129
I00
tp1130
a(S'captain'
p1131
I00
tp1132
a(S'somewhat'
p1133
I00
tp1134
a(S'dead'
p1135
I00
tp1136
a(S'rating'
p1137
I00
tp1138
a(S'field'
p1139
I00
tp1140
a(S'town'
p1141
I00
tp1142
a(S'energy'
p1143
I00
tp1144
a(S'print'
p1145
I00
tp1146
a(S'simply'
p1147
I00
tp1148
a(S'moment'
p1149
I00
tp1150
a(S'prose'
p1151
I00
tp1152
a(S'quickly'
p1153
I00
tp1154
a(S'table'
p1155
I00
tp1156
a(S'provides'
p1157
I00
tp1158
a(S'hit'
p1159
I00
tp1160
a(S'called'
p1161
I00
tp1162
a(S'difficult'
p1163
I00
tp1164
a(S'straight'
p1165
I00
tp1166
a(S'beauty'
p1167
I00
tp1168
a(S'fairly'
p1169
I00
tp1170
a(S'possible'
p1171
I00
tp1172
a(S'brought'
p1173
I00
tp1174
a(S'venice'
p1175
I00
tp1176
a(S'saw'
p1177
I00
tp1178
a(S'leia'
p1179
I00
tp1180
a(S'process'
p1181
I00
tp1182
a(S'romulan'
p1183
I00
tp1184
a(S'stuff'
p1185
I00
tp1186
a(S'chance'
p1187
I00
tp1188
a(S'eventually'
p1189
I00
tp1190
a(Vexplanation
p1191
I00
tp1192
a(S'post'
p1193
I00
tp1194
a(S'taken'
p1195
I00
tp1196
a(S'appear'
p1197
I00
tp1198
a(S'remember'
p1199
I00
tp1200
a(S'typical'
p1201
I00
tp1202
a(S'fi'
p1203
I00
tp1204
a(S'thinking'
p1205
I00
tp1206
a(S'business'
p1207
I00
tp1208
a(Vdream
p1209
I00
tp1210
a(S'famous'
p1211
I00
tp1212
a(S'shaw'
p1213
I00
tp1214
a(S'older'
p1215
I00
tp1216
a(S'economic'
p1217
I00
tp1218
a(S'depth'
p1219
I00
tp1220
a(S'completely'
p1221
I00
tp1222
a(S'sorry'
p1223
I00
tp1224
a(Vanswer
p1225
I00
tp1226
a(S'attempt'
p1227
I00
tp1228
a(S'went'
p1229
I00
tp1230
a(Vstruggle
p1231
I00
tp1232
a(S'jones'
p1233
I00
tp1234
a(S'filled'
p1235
I00
tp1236
a(Vboy
p1237
I00
tp1238
a(S'break'
p1239
I00
tp1240
a(S'aspect'
p1241
I00
tp1242
a(S'deep'
p1243
I00
tp1244
a(S'fill'
p1245
I00
tp1246
a(S'search'
p1247
I00
tp1248
a(S'particularly'
p1249
I00
tp1250
a(S'solid'
p1251
I00
tp1252
a(S'absolutely'
p1253
I00
tp1254
a(S'account'
p1255
I00
tp1256
a(S'mother'
p1257
I00
tp1258
a(S'minor'
p1259
I00
tp1260
a(Vreturn
p1261
I00
tp1262
a(S'disappointing'
p1263
I00
tp1264
a(S'moving'
p1265
I00
tp1266
a(S'peace'
p1267
I00
tp1268
a(S'unique'
p1269
I00
tp1270
a(S'originally'
p1271
I00
tp1272
a(S'turned'
p1273
I00
tp1274
a(Vnote
p1275
I00
tp1276
a(S'surprised'
p1277
I00
tp1278
a(S'sent'
p1279
I00
tp1280
a(S'involved'
p1281
I00
tp1282
a(S'stop'
p1283
I00
tp1284
a(S'truth'
p1285
I00
tp1286
a(S'length'
p1287
I00
tp1288
a(S'system'
p1289
I00
tp1290
a(S'familiar'
p1291
I00
tp1292
a(S'irish'
p1293
I00
tp1294
a(S'earlier'
p1295
I00
tp1296
a(Vsentence
p1297
I00
tp1298
a(S'personality'
p1299
I00
tp1300
a(S'night'
p1301
I00
tp1302
a(S'happen'
p1303
I00
tp1304
a(S'aren'
p1305
I00
tp1306
a(S'miss'
p1307
I00
tp1308
a(S'guide'
p1309
I00
tp1310
a(S'similar'
p1311
I00
tp1312
a(S'control'
p1313
I00
tp1314
a(S'data'
p1315
I00
tp1316
a(S'final'
p1317
I00
tp1318
a(S'admit'
p1319
I00
tp1320
a(S'likely'
p1321
I00
tp1322
a(Vadult
p1323
I00
tp1324
a(S'amazing'
p1325
I00
tp1326
a(S'background'
p1327
I00
tp1328
a(S'shakespeare'
p1329
I00
tp1330
a(S'finally'
p1331
I00
tp1332
a(S'killed'
p1333
I00
tp1334
a(S'normal'
p1335
I00
tp1336
a(S'across'
p1337
I00
tp1338
a(S'public'
p1339
I00
tp1340
a(S'tiffany'
p1341
I00
tp1342
a(S'eye'
p1343
I00
tp1344
a(Vhouse
p1345
I00
tp1346
a(Vtrooper
p1347
I00
tp1348
a(S'download'
p1349
I00
tp1350
a(S'follows'
p1351
I00
tp1352
a(S'mention'
p1353
I00
tp1354
a(S'female'
p1355
I00
tp1356
a(S'starting'
p1357
I00
tp1358
a(S'phone'
p1359
I00
tp1360
a(S'compelling'
p1361
I00
tp1362
a(S'top'
p1363
I00
tp1364
a(Vtool
p1365
I00
tp1366
a(S'thoroughly'
p1367
I00
tp1368
a(S'approach'
p1369
I00
tp1370
a(S'gift'
p1371
I00
tp1372
a(Vofficer
p1373
I00
tp1374
a(S'figure'
p1375
I00
tp1376
a(S'week'
p1377
I00
tp1378
a(S'mann'
p1379
I00
tp1380
a(S'rate'
p1381
I00
tp1382
a(S'brown'
p1383
I00
tp1384
a(S'king'
p1385
I00
tp1386
a(S'various'
p1387
I00
tp1388
a(S'literature'
p1389
I00
tp1390
a(S'anne'
p1391
I00
tp1392
a(S'alien'
p1393
I00
tp1394
a(S'include'
p1395
I00
tp1396
a(S'related'
p1397
I00
tp1398
a(S'boring'
p1399
I00
tp1400
a(S'travel'
p1401
I00
tp1402
a(S'needed'
p1403
I00
tp1404
a(S'worked'
p1405
I00
tp1406
a(Vchoice
p1407
I00
tp1408
a(Vminute
p1409
I00
tp1410
a(S'team'
p1411
I00
tp1412
a(Vemotion
p1413
I00
tp1414
a(S'knew'
p1415
I00
tp1416
a(Vsale
p1417
I00
tp1418
a(S'slow'
p1419
I00
tp1420
a(S'kirk'
p1421
I00
tp1422
a(S'buying'
p1423
I00
tp1424
a(S'te'
p1425
I00
tp1426
a(S'social'
p1427
I00
tp1428
a(S'magic'
p1429
I00
tp1430
a(S'theme'
p1431
I00
tp1432
a(S'doubt'
p1433
I00
tp1434
a(Vbeginner
p1435
I00
tp1436
a(S'nancy'
p1437
I00
tp1438
a(S'created'
p1439
I00
tp1440
a(S'mistake'
p1441
I00
tp1442
a(S'fight'
p1443
I00
tp1444
a(S'product'
p1445
I00
tp1446
a(S'ring'
p1447
I00
tp1448
a(S'commander'
p1449
I00
tp1450
a(S'month'
p1451
I00
tp1452
a(S'evening'
p1453
I00
tp1454
a(S'justice'
p1455
I00
tp1456
a(S'whatever'
p1457
I00
tp1458
a(S'run'
p1459
I00
tp1460
a(S'seeing'
p1461
I00
tp1462
a(S'powerful'
p1463
I00
tp1464
a(S'anyway'
p1465
I00
tp1466
a(S'necessary'
p1467
I00
tp1468
a(S'room'
p1469
I00
tp1470
a(S'starfleet'
p1471
I00
tp1472
a(S'suspect'
p1473
I00
tp1474
a(Vtalk
p1475
I00
tp1476
a(S'victorian'
p1477
I00
tp1478
a(S'behind'
p1479
I00
tp1480
a(Vdollar
p1481
I00
tp1482
a(S'playing'
p1483
I00
tp1484
a(S'spent'
p1485
I00
tp1486
a(S'despite'
p1487
I00
tp1488
a(Vla
p1489
I00
tp1490
a(Vlover
p1491
I00
tp1492
a(S'god'
p1493
I00
tp1494
a(S'expected'
p1495
I00
tp1496
a(S'apart'
p1497
I00
tp1498
a(S'bargain'
p1499
I00
tp1500
a(S'happened'
p1501
I00
tp1502
a(S'detective'
p1503
I00
tp1504
a(S'violent'
p1505
I00
tp1506
a(S'lack'
p1507
I00
tp1508
a(S'apartment'
p1509
I00
tp1510
a(S'explains'
p1511
I00
tp1512
a(S'smith'
p1513
I00
tp1514
a(S'waiting'
p1515
I00
tp1516
a(S'chicken'
p1517
I00
tp1518
a(S'decent'
p1519
I00
tp1520
a(S'james'
p1521
I00
tp1522
a(Vleaf
p1523
I00
tp1524
a(S'hold'
p1525
I00
tp1526
a(S'easier'
p1527
I00
tp1528
a(S'barton'
p1529
I00
tp1530
a(S'message'
p1531
I00
tp1532
a(S'white'
p1533
I00
tp1534
a(S'unfortunately'
p1535
I00
tp1536
a(S'country'
p1537
I00
tp1538
a(Voffer
p1539
I00
tp1540
a(S'inside'
p1541
I00
tp1542
a(S'lamour'
p1543
I00
tp1544
a(S'luceno'
p1545
I00
tp1546
a(S'sal'
p1547
I00
tp1548
a(S'average'
p1549
I00
tp1550
a(S'rest'
p1551
I00
tp1552
a(S'act'
p1553
I00
tp1554
a(Vbelief
p1555
I00
tp1556
a(S'sell'
p1557
I00
tp1558
a(S'expanded'
p1559
I00
tp1560
a(S'weinberg'
p1561
I00
tp1562
a(S'continue'
p1563
I00
tp1564
a(S'opinion'
p1565
I00
tp1566
a(S'society'
p1567
I00
tp1568
a(S'packed'
p1569
I00
tp1570
a(S'greater'
p1571
I00
tp1572
a(S'stage'
p1573
I00
tp1574
a(S'gerry'
p1575
I00
tp1576
a(S'green'
p1577
I00
tp1578
a(Vstandard
p1579
I00
tp1580
a(S'da'
p1581
I00
tp1582
a(S'concept'
p1583
I00
tp1584
a(S'presented'
p1585
I00
tp1586
a(S'cost'
p1587
I00
tp1588
a(S'heard'
p1589
I00
tp1590
a(S'cold'
p1591
I00
tp1592
a(S'ed'
p1593
I00
tp1594
a(S'honest'
p1595
I00
tp1596
a(S'discovered'
p1597
I00
tp1598
a(S'poor'
p1599
I00
tp1600
a(S'respect'
p1601
I00
tp1602
a(S'tried'
p1603
I00
tp1604
a(S'towards'
p1605
I00
tp1606
a(S'walter'
p1607
I00
tp1608
a(S'picked'
p1609
I00
tp1610
a(S'win'
p1611
I00
tp1612
a(Vcause
p1613
I00
tp1614
a(S'vinci'
p1615
I00
tp1616
a(S'strange'
p1617
I00
tp1618
a(S'intrigue'
p1619
I00
tp1620
a(S'fantastic'
p1621
I00
tp1622
a(S'warp'
p1623
I00
tp1624
a(S'harriet'
p1625
I00
tp1626
a(S'reviewer'
p1627
I00
tp1628
a(S'personally'
p1629
I00
tp1630
a(S'seven'
p1631
I00
tp1632
a(S'journey'
p1633
I00
tp1634
a(S'died'
p1635
I00
tp1636
a(Vagent
p1637
I00
tp1638
a(S'elizabeth'
p1639
I00
tp1640
a(S'correct'
p1641
I00
tp1642
a(S'contemporary'
p1643
I00
tp1644
a(S'dated'
p1645
I00
tp1646
a(S'unusual'
p1647
I00
tp1648
a(S'mark'
p1649
I00
tp1650
a(S'audience'
p1651
I00
tp1652
a(S'practical'
p1653
I00
tp1654
a(Vpleasure
p1655
I00
tp1656
a(S'delicious'
p1657
I00
tp1658
a(S'trilogy'
p1659
I00
tp1660
a(S'source'
p1661
I00
tp1662
a(S'literary'
p1663
I00
tp1664
a(S'helped'
p1665
I00
tp1666
a(Vweapon
p1667
I00
tp1668
a(S'enterprise'
p1669
I00
tp1670
a(S'queen'
p1671
I00
tp1672
a(S'particular'
p1673
I00
tp1674
a(Vpassage
p1675
I00
tp1676
a(S'charge'
p1677
I00
tp1678
a(S'klausner'
p1679
I00
tp1680
a(S'bradshaw'
p1681
I00
tp1682
a(Vtrip
p1683
I00
tp1684
a(S'fitzgerald'
p1685
I00
tp1686
a(S'football'
p1687
I00
tp1688
a(Vstand
p1689
I00
tp1690
a(S'brief'
p1691
I00
tp1692
a(S'paradise'
p1693
I00
tp1694
a(S'became'
p1695
I00
tp1696
a(S'chandler'
p1697
I00
tp1698
a(S'edge'
p1699
I00
tp1700
a(S'understood'
p1701
I00
tp1702
a(S'lippman'
p1703
I00
tp1704
a(S'watching'
p1705
I00
tp1706
a(Vexam
p1707
I00
tp1708
a(S'unlike'
p1709
I00
tp1710
a(S'military'
p1711
I00
tp1712
a(S'successful'
p1713
I00
tp1714
a(S'predictable'
p1715
I00
tp1716
a(S'rich'
p1717
I00
tp1718
a(S'adapter'
p1719
I00
tp1720
a(Vdesire
p1721
I00
tp1722
a(S'multiple'
p1723
I00
tp1724
a(S'alone'
p1725
I00
tp1726
a(S'complicated'
p1727
I00
tp1728
a(S'argument'
p1729
I00
tp1730
a(S'destroy'
p1731
I00
tp1732
a(S'sidious'
p1733
I00
tp1734
a(S'detailed'
p1735
I00
tp1736
a(S'consider'
p1737
I00
tp1738
a(S'condition'
p1739
I00
tp1740
a(S'teen'
p1741
I00
tp1742
a(S'trade'
p1743
I00
tp1744
a(S'gold'
p1745
I00
tp1746
a(S'beautifully'
p1747
I00
tp1748
a(Vus
p1749
I00
tp1750
a(S'land'
p1751
I00
tp1752
a(S'realize'
p1753
I00
tp1754
a(S'clearly'
p1755
I00
tp1756
a(Vdevice
p1757
I00
tp1758
a(S'waste'
p1759
I00
tp1760
a(S'government'
p1761
I00
tp1762
a(S'manner'
p1763
I00
tp1764
a(S'forced'
p1765
I00
tp1766
a(S'received'
p1767
I00
tp1768
a(Vphoto
p1769
I00
tp1770
a(Villustration
p1771
I00
tp1772
a(S'physical'
p1773
I00
tp1774
a(S'paced'
p1775
I00
tp1776
a(S'servant'
p1777
I00
tp1778
a(S'caught'
p1779
I00
tp1780
a(S'america'
p1781
I00
tp1782
a(S'husband'
p1783
I00
tp1784
a(S'republic'
p1785
I00
tp1786
a(S'building'
p1787
I00
tp1788
a(S'vera'
p1789
I00
tp1790
a(S'saboteur'
p1791
I00
tp1792
a(Vlie
p1793
I00
tp1794
a(S'missing'
p1795
I00
tp1796
a(S'described'
p1797
I00
tp1798
a(S'happens'
p1799
I00
tp1800
a(S'clark'
p1801
I00
tp1802
a(S'actual'
p1803
I00
tp1804
a(S'ride'
p1805
I00
tp1806
a(S'front'
p1807
I00
tp1808
a(S'entertainment'
p1809
I00
tp1810
a(S'nuala'
p1811
I00
tp1812
a(S'reference'
p1813
I00
tp1814
a(S'ignorance'
p1815
I00
tp1816
a(S'opportunity'
p1817
I00
tp1818
a(S'super'
p1819
I00
tp1820
a(Vitem
p1821
I00
tp1822
a(Vmap
p1823
I00
tp1824
a(S'nearly'
p1825
I00
tp1826
a(S'pay'
p1827
I00
tp1828
a(S'enjoying'
p1829
I00
tp1830
a(S'difference'
p1831
I00
tp1832
a(S'hour'
p1833
I00
tp1834
a(S'late'
p1835
I00
tp1836
a(S'totally'
p1837
I00
tp1838
a(S'mountain'
p1839
I00
tp1840
a(Vbuild
p1841
I00
tp1842
a(S'lovecraft'
p1843
I00
tp1844
a(S'meeting'
p1845
I00
tp1846
a(S'cut'
p1847
I00
tp1848
a(S'drama'
p1849
I00
tp1850
a(S'lesson'
p1851
I00
tp1852
a(S'research'
p1853
I00
tp1854
a(S'heim'
p1855
I00
tp1856
a(S'philosophy'
p1857
I00
tp1858
a(S'jendri'
p1859
I00
tp1860
a(S'frank'
p1861
I00
tp1862
a(S'chewie'
p1863
I00
tp1864
a(S'cop'
p1865
I00
tp1866
a(S'value'
p1867
I00
tp1868
a(S'plenty'
p1869
I00
tp1870
a(S'flow'
p1871
I00
tp1872
a(S'watch'
p1873
I00
tp1874
a(S'informative'
p1875
I00
tp1876
a(S'christmas'
p1877
I00
tp1878
a(Vcorp
p1879
I00
tp1880
a(Vdinner
p1881
I00
tp1882
a(S'cool'
p1883
I00
tp1884
a(S'remain'
p1885
I00
tp1886
a(S'paragraph'
p1887
I00
tp1888
a(S'realistic'
p1889
I00
tp1890
a(S'released'
p1891
I00
tp1892
a(S'suspense'
p1893
I00
tp1894
a(S'state'
p1895
I00
tp1896
a(S'fails'
p1897
I00
tp1898
a(S'except'
p1899
I00
tp1900
a(S'okay'
p1901
I00
tp1902
a(S'developed'
p1903
I00
tp1904
a(S'mcbain'
p1905
I00
tp1906
a(S'behavior'
p1907
I00
tp1908
a(S'complaint'
p1909
I00
tp1910
a(S'unknown'
p1911
I00
tp1912
a(S'member'
p1913
I00
tp1914
a(S'strike'
p1915
I00
tp1916
a(S'aschenbach'
p1917
I00
tp1918
a(S'romulans'
p1919
I00
tp1920
a(Vproject
p1921
I00
tp1922
a(S'professor'
p1923
I00
tp1924
a(S'nicely'
p1925
I00
tp1926
a(S'previous'
p1927
I00
tp1928
a(S'possibly'
p1929
I00
tp1930
a(Vspecie
p1931
I00
tp1932
a(S'memorable'
p1933
I00
tp1934
a(S'current'
p1935
I00
tp1936
a(S'address'
p1937
I00
tp1938
a(S'avid'
p1939
I00
tp1940
a(S'saving'
p1941
I00
tp1942
a(S'technology'
p1943
I00
tp1944
a(S'scientific'
p1945
I00
tp1946
a(S'pull'
p1947
I00
tp1948
a(S'terry'
p1949
I00
tp1950
a(S'prior'
p1951
I00
tp1952
a(S'paper'
p1953
I00
tp1954
a(S'marriage'
p1955
I00
tp1956
a(Venemy
p1957
I00
tp1958
a(S'recent'
p1959
I00
tp1960
a(S'amy'
p1961
I00
tp1962
a(S'led'
p1963
I00
tp1964
a(S'challenge'
p1965
I00
tp1966
a(S'face'
p1967
I00
tp1968
a(S'bring'
p1969
I00
tp1970
a(S'meant'
p1971
I00
tp1972
a(Vhandle
p1973
I00
tp1974
a(S'vc'
p1975
I00
tp1976
a(Vrule
p1977
I00
tp1978
a(Vtriumph
p1979
I00
tp1980
a(S'medicine'
p1981
I00
tp1982
a(S'comic'
p1983
I00
tp1984
a(S'brewster'
p1985
I00
tp1986
a(S'drawn'
p1987
I00
tp1988
a(S'thanks'
p1989
I00
tp1990
a(S'basically'
p1991
I00
tp1992
a(S'gun'
p1993
I00
tp1994
a(Vtrial
p1995
I00
tp1996
a(S'usually'
p1997
I00
tp1998
a(S'extra'
p1999
I00
tp2000
a(S'nor'
p2001
I00
tp2002
a(S'british'
p2003
I00
tp2004
a(S'central'
p2005
I00
tp2006
a(S'horror'
p2007
I00
tp2008
a(S'held'
p2009
I00
tp2010
a(S'beyond'
p2011
I00
tp2012
a(S'close'
p2013
I00
tp2014
a(S'lived'
p2015
I00
tp2016
a(S'intriguing'
p2017
I00
tp2018
a(Vdraw
p2019
I00
tp2020
a(S'required'
p2021
I00
tp2022
a(S'eating'
p2023
I00
tp2024
a(S'remains'
p2025
I00
tp2026
a(S'effect'
p2027
I00
tp2028
a(S'variety'
p2029
I00
tp2030
a(S'warlord'
p2031
I00
tp2032
a(S'sweet'
p2033
I00
tp2034
a(S'previously'
p2035
I00
tp2036
a(S'imperial'
p2037
I00
tp2038
a(S'seriously'
p2039
I00
tp2040
a(S'drew'
p2041
I00
tp2042
a(S'luck'
p2043
I00
tp2044
a(S'surprise'
p2045
I00
tp2046
a(S'explain'
p2047
I00
tp2048
a(S'wanting'
p2049
I00
tp2050
a(S'protagonist'
p2051
I00
tp2052
a(S'intellectual'
p2053
I00
tp2054
a(S'drive'
p2055
I00
tp2056
a(S'generally'
p2057
I00
tp2058
a(S'laura'
p2059
I00
tp2060
a(S'stormtroopers'
p2061
I00
tp2062
a(S'era'
p2063
I00
tp2064
a(S'henry'
p2065
I00
tp2066
a(S'visit'
p2067
I00
tp2068
a(S'killing'
p2069
I00
tp2070
a(S'considering'
p2071
I00
tp2072
a(Vpas
p2073
I00
tp2074
a(S'roosevelt'
p2075
I00
tp2076
a(S'advice'
p2077
I00
tp2078
a(S'engaging'
p2079
I00
tp2080
a(S'supposed'
p2081
I00
tp2082
a(S'relatively'
p2083
I00
tp2084
a(S'spend'
p2085
I00
tp2086
a(Vcup
p2087
I00
tp2088
a(Vdecision
p2089
I00
tp2090
a(S'desert'
p2091
I00
tp2092
a(S'brigade'
p2093
I00
tp2094
a(S'putting'
p2095
I00
tp2096
a(S'body'
p2097
I00
tp2098
a(S'readable'
p2099
I00
tp2100
a(S'obvious'
p2101
I00
tp2102
a(S'galaxy'
p2103
I00
tp2104
a(S'monaghan'
p2105
I00
tp2106
a(S'otherwise'
p2107
I00
tp2108
a(S'entrepreneurial'
p2109
I00
tp2110
a(S'success'
p2111
I00
tp2112
a(S'hate'
p2113
I00
tp2114
a(S'poorly'
p2115
I00
tp2116
a(S'heck'
p2117
I00
tp2118
a(S'habit'
p2119
I00
tp2120
a(S'greatest'
p2121
I00
tp2122
a(S'cultural'
p2123
I00
tp2124
a(S'serious'
p2125
I00
tp2126
a(S'brother'
p2127
I00
tp2128
a(S'fear'
p2129
I00
tp2130
a(Vobsession
p2131
I00
tp2132
a(S'pre'
p2133
I00
tp2134
a(S'pilot'
p2135
I00
tp2136
a(S'reminded'
p2137
I00
tp2138
a(S'model'
p2139
I00
tp2140
a(S'includes'
p2141
I00
tp2142
a(S'leading'
p2143
I00
tp2144
a(S'vong'
p2145
I00
tp2146
a(S'due'
p2147
I00
tp2148
a(S'anybody'
p2149
I00
tp2150
a(S'analysis'
p2151
I00
tp2152
a(S'essential'
p2153
I00
tp2154
a(S'simon'
p2155
I00
tp2156
a(S'leaving'
p2157
I00
tp2158
a(S'sir'
p2159
I00
tp2160
a(S'light'
p2161
I00
tp2162
a(S'dictionary'
p2163
I00
tp2164
a(S'slave'
p2165
I00
tp2166
a(Vvolume
p2167
I00
tp2168
a(S'whether'
p2169
I00
tp2170
a(S'unit'
p2171
I00
tp2172
a(S'brings'
p2173
I00
tp2174
a(Vengineer
p2175
I00
tp2176
a(S'service'
p2177
I00
tp2178
a(S'thriller'
p2179
I00
tp2180
a(S'argue'
p2181
I00
tp2182
a(S'haggard'
p2183
I00
tp2184
a(S'creative'
p2185
I00
tp2186
a(S'falling'
p2187
I00
tp2188
a(S'sad'
p2189
I00
tp2190
a(S'aside'
p2191
I00
tp2192
a(S'printed'
p2193
I00
tp2194
a(S'screen'
p2195
I00
tp2196
a(S'flawed'
p2197
I00
tp2198
a(S'certain'
p2199
I00
tp2200
a(Vmass
p2201
I00
tp2202
a(S'caused'
p2203
I00
tp2204
a(S'male'
p2205
I00
tp2206
a(S'creature'
p2207
I00
tp2208
a(S'imagine'
p2209
I00
tp2210
a(S'grossman'
p2211
I00
tp2212
a(S'retired'
p2213
I00
tp2214
a(S'budget'
p2215
I00
tp2216
a(S'kelly'
p2217
I00
tp2218
a(S'race'
p2219
I00
tp2220
a(S'titanic'
p2221
I00
tp2222
a(S'intelligent'
p2223
I00
tp2224
a(S'installment'
p2225
I00
tp2226
a(S'bother'
p2227
I00
tp2228
a(S'figured'
p2229
I00
tp2230
a(S'sith'
p2231
I00
tp2232
a(S'commitment'
p2233
I00
tp2234
a(S'informational'
p2235
I00
tp2236
a(S'ghost'
p2237
I00
tp2238
a(S'thracken'
p2239
I00
tp2240
a(S'aware'
p2241
I00
tp2242
a(S'gloria'
p2243
I00
tp2244
a(S'ordinary'
p2245
I00
tp2246
a(S'strength'
p2247
I00
tp2248
a(S'de'
p2249
I00
tp2250
a(S'speak'
p2251
I00
tp2252
a(S'victim'
p2253
I00
tp2254
a(S'board'
p2255
I00
tp2256
a(S'humor'
p2257
I00
tp2258
a(S'evidence'
p2259
I00
tp2260
a(S'holding'
p2261
I00
tp2262
a(S'thinker'
p2263
I00
tp2264
a(S'downloaded'
p2265
I00
tp2266
a(Vgraphic
p2267
I00
tp2268
a(S'topic'
p2269
I00
tp2270
a(S'non'
p2271
I00
tp2272
a(S'size'
p2273
I00
tp2274
a(S'appreciated'
p2275
I00
tp2276
a(S'breakfast'
p2277
I00
tp2278
a(S'online'
p2279
I00
tp2280
a(S'failure'
p2281
I00
tp2282
a(Vsport
p2283
I00
tp2284
a(Vlady
p2285
I00
tp2286
a(S'timothy'
p2287
I00
tp2288
a(S'moved'
p2289
I00
tp2290
a(S'stiglitz'
p2291
I00
tp2292
a(S'higgins'
p2293
I00
tp2294
a(S'amount'
p2295
I00
tp2296
a(S'ask'
p2297
I00
tp2298
a(S'site'
p2299
I00
tp2300
a(S'absence'
p2301
I00
tp2302
a(S'fully'
p2303
I00
tp2304
a(S'horse'
p2305
I00
tp2306
a(S'culture'
p2307
I00
tp2308
a(S'wow'
p2309
I00
tp2310
a(S'toward'
p2311
I00
tp2312
a(S'ready'
p2313
I00
tp2314
a(S'anymore'
p2315
I00
tp2316
a(S'translated'
p2317
I00
tp2318
a(S'jacen'
p2319
I00
tp2320
a(Vjump
p2321
I00
tp2322
a(Vvega
p2323
I00
tp2324
a(S'manage'
p2325
I00
tp2326
a(S'special'
p2327
I00
tp2328
a(S'perfectly'
p2329
I00
tp2330
a(S'grab'
p2331
I00
tp2332
a(S'key'
p2333
I00
tp2334
a(S'addition'
p2335
I00
tp2336
a(S'fate'
p2337
I00
tp2338
a(Vportion
p2339
I00
tp2340
a(S'active'
p2341
I00
tp2342
a(Vmeat
p2343
I00
tp2344
a(S'turning'
p2345
I00
tp2346
a(Vtwister
p2347
I00
tp2348
a(S'decides'
p2349
I00
tp2350
a(S'lovely'
p2351
I00
tp2352
a(S'website'
p2353
I00
tp2354
a(S'near'
p2355
I00
tp2356
a(S'delight'
p2357
I00
tp2358
a(S'punishment'
p2359
I00
tp2360
a(S'save'
p2361
I00
tp2362
a(S'somehow'
p2363
I00
tp2364
a(S'commit'
p2365
I00
tp2366
a(S'digital'
p2367
I00
tp2368
a(S'international'
p2369
I00
tp2370
a(S'mining'
p2371
I00
tp2372
a(S'black'
p2373
I00
tp2374
a(S'finishing'
p2375
I00
tp2376
a(S'sound'
p2377
I00
tp2378
a(S'profiler'
p2379
I00
tp2380
a(S'critical'
p2381
I00
tp2382
a(Vspice
p2383
I00
tp2384
a(S'lawyer'
p2385
I00
tp2386
a(S'jackie'
p2387
I00
tp2388
a(Vcompare
p2389
I00
tp2390
a(Vshare
p2391
I00
tp2392
a(S'galactic'
p2393
I00
tp2394
a(S'youth'
p2395
I00
tp2396
a(S'treated'
p2397
I00
tp2398
a(S'carefully'
p2399
I00
tp2400
a(S'talking'
p2401
I00
tp2402
a(S'train'
p2403
I00
tp2404
a(S'profile'
p2405
I00
tp2406
a(Vimage
p2407
I00
tp2408
a(S'unless'
p2409
I00
tp2410
a(S'agree'
p2411
I00
tp2412
a(Vcomment
p2413
I00
tp2414
a(S'appearance'
p2415
I00
tp2416
a(Vcenter
p2417
I00
tp2418
a(S'nevertheless'
p2419
I00
tp2420
a(Vposition
p2421
I00
tp2422
a(S'introduced'
p2423
I00
tp2424
a(Vcorporation
p2425
I00
tp2426
a(S'limited'
p2427
I00
tp2428
a(S'robbins'
p2429
I00
tp2430
a(S'shoot'
p2431
I00
tp2432
a(S'sitting'
p2433
I00
tp2434
a(S'preventive'
p2435
I00
tp2436
a(S'fashion'
p2437
I00
tp2438
a(S'weak'
p2439
I00
tp2440
a(S'fault'
p2441
I00
tp2442
a(S'plus'
p2443
I00
tp2444
a(S'believable'
p2445
I00
tp2446
a(S'huge'
p2447
I00
tp2448
a(S'vanya'
p2449
I00
tp2450
a(S'emphasis'
p2451
I00
tp2452
a(S'troy'
p2453
I00
tp2454
a(S'genius'
p2455
I00
tp2456
a(S'poe'
p2457
I00
tp2458
a(S'kill'
p2459
I00
tp2460
a(S'hint'
p2461
I00
tp2462
a(Vkingdom
p2463
I00
tp2464
a(S'provided'
p2465
I00
tp2466
a(S'oh'
p2467
I00
tp2468
a(S'taste'
p2469
I00
tp2470
a(S'politics'
p2471
I00
tp2472
a(S'coruscant'
p2473
I00
tp2474
a(Vflower
p2475
I00
tp2476
a(S'worst'
p2477
I00
tp2478
a(S'benjamin'
p2479
I00
tp2480
a(Vteach
p2481
I00
tp2482
a(S'threat'
p2483
I00
tp2484
a(S'twenty'
p2485
I00
tp2486
a(S'traditional'
p2487
I00
tp2488
a(S'creating'
p2489
I00
tp2490
a(S'thirty'
p2491
I00
tp2492
a(S'lengthy'
p2493
I00
tp2494
a(S'immediately'
p2495
I00
tp2496
a(S'lose'
p2497
I00
tp2498
a(S'narrative'
p2499
I00
tp2500
a(S'six'
p2501
I00
tp2502
a(Vshelf
p2503
I00
tp2504
a(S'local'
p2505
I00
tp2506
a(S'brain'
p2507
I00
tp2508
a(S'walk'
p2509
I00
tp2510
a(S'radigan'
p2511
I00
tp2512
a(S'wild'
p2513
I00
tp2514
a(Vpromise
p2515
I00
tp2516
a(S'china'
p2517
I00
tp2518
a(S'dorm'
p2519
I00
tp2520
a(S'psychological'
p2521
I00
tp2522
a(S'therefore'
p2523
I00
tp2524
a(S'hot'
p2525
I00
tp2526
a(S'fix'
p2527
I00
tp2528
a(S'hidden'
p2529
I00
tp2530
a(Vtree
p2531
I00
tp2532
a(S'object'
p2533
I00
tp2534
a(S'gritty'
p2535
I00
tp2536
a(S'knowing'
p2537
I00
tp2538
a(S'invested'
p2539
I00
tp2540
a(Vchain
p2541
I00
tp2542
a(S'sign'
p2543
I00
tp2544
a(S'ground'
p2545
I00
tp2546
a(S'wondering'
p2547
I00
tp2548
a(Vstress
p2549
I00
tp2550
a(S'sw'
p2551
I00
tp2552
a(S'feature'
p2553
I00
tp2554
a(S'prime'
p2555
I00
tp2556
a(S'artist'
p2557
I00
tp2558
a(S'enjoys'
p2559
I00
tp2560
a(S'fame'
p2561
I00
tp2562
a(S'summer'
p2563
I00
tp2564
a(S'nelson'
p2565
I00
tp2566
a(S'tr'
p2567
I00
tp2568
a(S'heist'
p2569
I00
tp2570
a(S'large'
p2571
I00
tp2572
a(Vmethod
p2573
I00
tp2574
a(S'followed'
p2575
I00
tp2576
a(S'door'
p2577
I00
tp2578
a(Vcompany
p2579
I00
tp2580
a(S'keeping'
p2581
I00
tp2582
a(S'entrepreneurship'
p2583
I00
tp2584
a(S'refuse'
p2585
I00
tp2586
a(S'ally'
p2587
I00
tp2588
a(S'vader'
p2589
I00
tp2590
a(S'distraction'
p2591
I00
tp2592
a(S'devil'
p2593
I00
tp2594
a(S'publishing'
p2595
I00
tp2596
a(S'reliable'
p2597
I00
tp2598
a(S'hoping'
p2599
I00
tp2600
a(S'pender'
p2601
I00
tp2602
a(S'disorder'
p2603
I00
tp2604
a(S'senate'
p2605
I00
tp2606
a(S'primarily'
p2607
I00
tp2608
a(S'elsewhere'
p2609
I00
tp2610
a(S'concerned'
p2611
I00
tp2612
a(S'continued'
p2613
I00
tp2614
a(S'odd'
p2615
I00
tp2616
a(S'punch'
p2617
I00
tp2618
a(S'baby'
p2619
I00
tp2620
a(S'animal'
p2621
I00
tp2622
a(S'allow'
p2623
I00
tp2624
a(S'surely'
p2625
I00
tp2626
a(S'owner'
p2627
I00
tp2628
a(S'manchester'
p2629
I00
tp2630
a(S'h'
p2631
I00
tp2632
a(S'guessing'
p2633
I00
tp2634
a(S'cd'
p2635
I00
tp2636
a(S'raymond'
p2637
I00
tp2638
a(S'drawback'
p2639
I00
tp2640
a(S'smooth'
p2641
I00
tp2642
a(S'saved'
p2643
I00
tp2644
a(S'south'
p2645
I00
tp2646
a(S'versus'
p2647
I00
tp2648
a(S'carlyle'
p2649
I00
tp2650
a(S'involving'
p2651
I00
tp2652
a(S'sun'
p2653
I00
tp2654
a(S'formatting'
p2655
I00
tp2656
a(S'inspired'
p2657
I00
tp2658
a(S'perform'
p2659
I00
tp2660
a(S'gravity'
p2661
I00
tp2662
a(S'confusing'
p2663
I00
tp2664
a(S'deception'
p2665
I00
tp2666
a(S'becoming'
p2667
I00
tp2668
a(S'emotional'
p2669
I00
tp2670
a(S'update'
p2671
I00
tp2672
a(S'appeal'
p2673
I00
tp2674
a(S'car'
p2675
I00
tp2676
a(S'dedicated'
p2677
I00
tp2678
a(S'fortunately'
p2679
I00
tp2680
a(S'saxon'
p2681
I00
tp2682
a(S'introduce'
p2683
I00
tp2684
a(S'entirely'
p2685
I00
tp2686
a(S'ex'
p2687
I00
tp2688
a(S'rebel'
p2689
I00
tp2690
a(S'impossible'
p2691
I00
tp2692
a(S'sheer'
p2693
I00
tp2694
a(S'fifty'
p2695
I00
tp2696
a(Vconcern
p2697
I00
tp2698
a(S'develop'
p2699
I00
tp2700
a(S'touch'
p2701
I00
tp2702
a(S'speed'
p2703
I00
tp2704
a(S'verse'
p2705
I00
tp2706
a(S'salek'
p2707
I00
tp2708
a(S'louie'
p2709
I00
tp2710
a(S'darkness'
p2711
I00
tp2712
a(Vsoldier
p2713
I00
tp2714
a(S'mysterious'
p2715
I00
tp2716
a(S'robert'
p2717
I00
tp2718
a(S'terrible'
p2719
I00
tp2720
a(S'terribly'
p2721
I00
tp2722
a(S'useless'
p2723
I00
tp2724
a(S'smart'
p2725
I00
tp2726
a(S'wookiee'
p2727
I00
tp2728
a(S'ordered'
p2729
I00
tp2730
a(Vdrag
p2731
I00
tp2732
a(S'structure'
p2733
I00
tp2734
a(S'heath'
p2735
I00
tp2736
a(S'vampire'
p2737
I00
tp2738
a(S'poetry'
p2739
I00
tp2740
a(S'date'
p2741
I00
tp2742
a(S'exactly'
p2743
I00
tp2744
a(S'bed'
p2745
I00
tp2746
a(S'upset'
p2747
I00
tp2748
a(S'contain'
p2749
I00
tp2750
a(S'steelers'
p2751
I00
tp2752
a(S'tend'
p2753
I00
tp2754
a(S'running'
p2755
I00
tp2756
a(S'slowly'
p2757
I00
tp2758
a(S'capture'
p2759
I00
tp2760
a(S'eat'
p2761
I00
tp2762
a(Vteaching
p2763
I00
tp2764
a(S'solution'
p2765
I00
tp2766
a(S'plante'
p2767
I00
tp2768
a(S'moral'
p2769
I00
tp2770
a(Varmy
p2771
I00
tp2772
a(Vtypo
p2773
I00
tp2774
a(S'root'
p2775
I00
tp2776
a(S'playwright'
p2777
I00
tp2778
a(S'mine'
p2779
I00
tp2780
a(S'regular'
p2781
I00
tp2782
a(Vobservation
p2783
I00
tp2784
a(Vm
p2785
I00
tp2786
a(S'tiny'
p2787
I00
tp2788
a(S'kim'
p2789
I00
tp2790
a(S'legion'
p2791
I00
tp2792
a(S'die'
p2793
I00
tp2794
a(S'dealing'
p2795
I00
tp2796
a(S'suggestion'
p2797
I00
tp2798
a(S'growing'
p2799
I00
tp2800
a(Vclaim
p2801
I00
tp2802
a(S'confused'
p2803
I00
tp2804
a(S'sample'
p2805
I00
tp2806
a(S'pure'
p2807
I00
tp2808
a(S'track'
p2809
I00
tp2810
a(S'shot'
p2811
I00
tp2812
a(S'seat'
p2813
I00
tp2814
a(S'everyday'
p2815
I00
tp2816
a(S'overly'
p2817
I00
tp2818
a(S'island'
p2819
I00
tp2820
a(S'mixed'
p2821
I00
tp2822
a(S'imagination'
p2823
I00
tp2824
a(S'girlfriend'
p2825
I00
tp2826
a(S'tedious'
p2827
I00
tp2828
a(S'personnel'
p2829
I00
tp2830
a(S'publisher'
p2831
I00
tp2832
a(S'oxford'
p2833
I00
tp2834
a(S'perry'
p2835
I00
tp2836
a(S'difficulty'
p2837
I00
tp2838
a(S'paint'
p2839
I00
tp2840
a(S'gotten'
p2841
I00
tp2842
a(Vtoe
p2843
I00
tp2844
a(S'majority'
p2845
I00
tp2846
a(S'thomas'
p2847
I00
tp2848
a(S'chose'
p2849
I00
tp2850
a(S'please'
p2851
I00
tp2852
a(S'raise'
p2853
I00
tp2854
a(Vgap
p2855
I00
tp2856
a(Vpolitician
p2857
I00
tp2858
a(Vtask
p2859
I00
tp2860
a(S'mungo'
p2861
I00
tp2862
a(S'hoped'
p2863
I00
tp2864
a(S'kendarra'
p2865
I00
tp2866
a(S'healing'
p2867
I00
tp2868
a(S'extreme'
p2869
I00
tp2870
a(S'named'
p2871
I00
tp2872
a(Vnative
p2873
I00
tp2874
a(S'equilibrium'
p2875
I00
tp2876
a(S'taking'
p2877
I00
tp2878
a(S'dermot'
p2879
I00
tp2880
a(S'alive'
p2881
I00
tp2882
a(S'rushed'
p2883
I00
tp2884
a(S'sequel'
p2885
I00
tp2886
a(Vencounter
p2887
I00
tp2888
a(S'changed'
p2889
I00
tp2890
a(S'join'
p2891
I00
tp2892
a(S'enter'
p2893
I00
tp2894
a(S'seamus'
p2895
I00
tp2896
a(S'masterpiece'
p2897
I00
tp2898
a(S'calorie'
p2899
I00
tp2900
a(Vton
p2901
I00
tp2902
a(S'insightful'
p2903
I00
tp2904
a(S'saga'
p2905
I00
tp2906
a(S'twice'
p2907
I00
tp2908
a(S'suggest'
p2909
I00
tp2910
a(S'core'
p2911
I00
tp2912
a(Vmedium
p2913
I00
tp2914
a(S'uncle'
p2915
I00
tp2916
a(S'check'
p2917
I00
tp2918
a(S'water'
p2919
I00
tp2920
a(S'memory'
p2921
I00
tp2922
a(Vprofit
p2923
I00
tp2924
a(S'require'
p2925
I00
tp2926
a(S'outcome'
p2927
I00
tp2928
a(Vcheat
p2929
I00
tp2930
a(S'cheap'
p2931
I00
tp2932
a(S'closure'
p2933
I00
tp2934
a(S'naked'
p2935
I00
tp2936
a(S'outside'
p2937
I00
tp2938
a(S'blow'
p2939
I00
tp2940
a(S'ok'
p2941
I00
tp2942
a(S'promote'
p2943
I00
tp2944
a(S'intro'
p2945
I00
tp2946
a(S'igo'
p2947
I00
tp2948
a(S'awful'
p2949
I00
tp2950
a(S'lawrence'
p2951
I00
tp2952
a(S'shouldn'
p2953
I00
tp2954
a(S'allows'
p2955
I00
tp2956
a(S'suddenly'
p2957
I00
tp2958
a(S'wouldn'
p2959
I00
tp2960
a(Vgeneration
p2961
I00
tp2962
a(S'health'
p2963
I00
tp2964
a(S'thrown'
p2965
I00
tp2966
a(Voption
p2967
I00
tp2968
a(S'port'
p2969
I00
tp2970
a(S'finding'
p2971
I00
tp2972
a(S'reach'
p2973
I00
tp2974
a(S'melody'
p2975
I00
tp2976
a(Vactivity
p2977
I00
tp2978
a(S'blurb'
p2979
I00
tp2980
a(S'latin'
p2981
I00
tp2982
a(S'recently'
p2983
I00
tp2984
a(S'context'
p2985
I00
tp2986
a(S'flight'
p2987
I00
tp2988
a(S'impressed'
p2989
I00
tp2990
a(S'highlight'
p2991
I00
tp2992
a(S'explore'
p2993
I00
tp2994
a(S'failed'
p2995
I00
tp2996
a(S'sin'
p2997
I00
tp2998
a(S'choose'
p2999
I00
tp3000
a(S'covered'
p3001
I00
tp3002
a(S'tommy'
p3003
I00
tp3004
a(S'afraid'
p3005
I00
tp3006
a(S'refreshing'
p3007
I00
tp3008
a(S'planning'
p3009
I00
tp3010
a(S'joy'
p3011
I00
tp3012
a(S'thus'
p3013
I00
tp3014
a(S'captivating'
p3015
I00
tp3016
a(S'leader'
p3017
I00
tp3018
a(S'murdered'
p3019
I00
tp3020
a(S'crenshaw'
p3021
I00
tp3022
a(S'huntress'
p3023
I00
tp3024
a(Vhurt
p3025
I00
tp3026
a(Vmachine
p3027
I00
tp3028
a(S'effective'
p3029
I00
tp3030
a(S'wind'
p3031
I00
tp3032
a(S'financial'
p3033
I00
tp3034
a(Vfoundation
p3035
I00
tp3036
a(Voutlaw
p3037
I00
tp3038
a(S'responsible'
p3039
I00
tp3040
a(S'committing'
p3041
I00
tp3042
a(S'entry'
p3043
I00
tp3044
a(S'nineteenth'
p3045
I00
tp3046
a(S'busy'
p3047
I00
tp3048
a(S'release'
p3049
I00
tp3050
a(S'fail'
p3051
I00
tp3052
a(S'manson'
p3053
I00
tp3054
a(S'accident'
p3055
I00
tp3056
a(Vworker
p3057
I00
tp3058
a(S'played'
p3059
I00
tp3060
a(S'birth'
p3061
I00
tp3062
a(S'prologue'
p3063
I00
tp3064
a(S'losing'
p3065
I00
tp3066
a(S'slightly'
p3067
I00
tp3068
a(S'constantly'
p3069
I00
tp3070
a(S'floor'
p3071
I00
tp3072
a(Vacquaintance
p3073
I00
tp3074
a(S'eacute'
p3075
I00
tp3076
a(S'peg'
p3077
I00
tp3078
a(S'solved'
p3079
I00
tp3080
a(S'erotic'
p3081
I00
tp3082
a(S'prefer'
p3083
I00
tp3084
a(S'spot'
p3085
I00
tp3086
a(S'natural'
p3087
I00
tp3088
a(S'pulled'
p3089
I00
tp3090
a(S'attraction'
p3091
I00
tp3092
a(Vinvestigation
p3093
I00
tp3094
a(S'internet'
p3095
I00
tp3096
a(S'training'
p3097
I00
tp3098
a(S'massive'
p3099
I00
tp3100
a(S'indicate'
p3101
I00
tp3102
a(S'williams'
p3103
I00
tp3104
a(Vartifact
p3105
I00
tp3106
a(S'turner'
p3107
I00
tp3108
a(S'cloak'
p3109
I00
tp3110
a(Vresource
p3111
I00
tp3112
a(S'former'
p3113
I00
tp3114
a(S'rooting'
p3115
I00
tp3116
a(S'pacing'
p3117
I00
tp3118
a(S'tight'
p3119
I00
tp3120
a(S'beware'
p3121
I00
tp3122
a(S'hunting'
p3123
I00
tp3124
a(Vdress
p3125
I00
tp3126
a(S'tarkin'
p3127
I00
tp3128
a(S'rapidly'
p3129
I00
tp3130
a(S'missed'
p3131
I00
tp3132
a(S'w'
p3133
I00
tp3134
a(S'immediate'
p3135
I00
tp3136
a(S'ranch'
p3137
I00
tp3138
a(S'internal'
p3139
I00
tp3140
a(S'impact'
p3141
I00
tp3142
a(S'palliser'
p3143
I00
tp3144
a(S'praetor'
p3145
I00
tp3146
a(S'connection'
p3147
I00
tp3148
a(S'dimensional'
p3149
I00
tp3150
a(S'receive'
p3151
I00
tp3152
a(S'von'
p3153
I00
tp3154
a(S'shorter'
p3155
I00
tp3156
a(Vsurrogate
p3157
I00
tp3158
a(S'rebecca'
p3159
I00
tp3160
a(S'chekhov'
p3161
I00
tp3162
a(S'dating'
p3163
I00
tp3164
a(S'nowhere'
p3165
I00
tp3166
a(S'melbourne'
p3167
I00
tp3168
a(S'occasional'
p3169
I00
tp3170
a(S'fresh'
p3171
I00
tp3172
a(S'menace'
p3173
I00
tp3174
a(S'involves'
p3175
I00
tp3176
a(S'standing'
p3177
I00
tp3178
a(S'realized'
p3179
I00
tp3180
a(S'counter'
p3181
I00
tp3182
a(S'robot'
p3183
I00
tp3184
a(S'produced'
p3185
I00
tp3186
a(S'delightful'
p3187
I00
tp3188
a(S'betty'
p3189
I00
tp3190
a(S'david'
p3191
I00
tp3192
a(S'studying'
p3193
I00
tp3194
a(Vpainting
p3195
I00
tp3196
a(S'frame'
p3197
I00
tp3198
a(S'olduvai'
p3199
I00
tp3200
a(S'winning'
p3201
I00
tp3202
a(S'ball'
p3203
I00
tp3204
a(S'passion'
p3205
I00
tp3206
a(S'alliance'
p3207
I00
tp3208
a(S'delivers'
p3209
I00
tp3210
a(Vcount
p3211
I00
tp3212
a(S'matt'
p3213
I00
tp3214
a(S'electronics'
p3215
I00
tp3216
a(S'montez'
p3217
I00
tp3218
a(S'total'
p3219
I00
tp3220
a(S'award'
p3221
I00
tp3222
a(S'decide'
p3223
I00
tp3224
a(S'somewhere'
p3225
I00
tp3226
a(S'bank'
p3227
I00
tp3228
a(S'latter'
p3229
I00
tp3230
a(Vdy
p3231
I00
tp3232
a(S'literally'
p3233
I00
tp3234
a(S'ill'
p3235
I00
tp3236
a(S'tough'
p3237
I00
tp3238
a(S'royal'
p3239
I00
tp3240
a(S'foucault'
p3241
I00
tp3242
a(S'wheel'
p3243
I00
tp3244
a(S'contact'
p3245
I00
tp3246
a(S'security'
p3247
I00
tp3248
a(S'reality'
p3249
I00
tp3250
a(S'welcome'
p3251
I00
tp3252
a(S'loyal'
p3253
I00
tp3254
a(Vdance
p3255
I00
tp3256
a(S'devoted'
p3257
I00
tp3258
a(S'division'
p3259
I00
tp3260
a(S'vegan'
p3261
I00
tp3262
a(S'p'
p3263
I00
tp3264
a(S'helpless'
p3265
I00
tp3266
a(S'gorge'
p3267
I00
tp3268
a(S'appears'
p3269
I00
tp3270
a(S'rarely'
p3271
I00
tp3272
a(S'dominance'
p3273
I00
tp3274
a(S'economy'
p3275
I00
tp3276
a(S'produce'
p3277
I00
tp3278
a(S'serving'
p3279
I00
tp3280
a(S'shown'
p3281
I00
tp3282
a(S'transition'
p3283
I00
tp3284
a(S'directly'
p3285
I00
tp3286
a(S'tragic'
p3287
I00
tp3288
a(Vgerman
p3289
I00
tp3290
a(S'truly'
p3291
I00
tp3292
a(S'prequel'
p3293
I00
tp3294
a(S'overview'
p3295
I00
tp3296
a(S'valuable'
p3297
I00
tp3298
a(S'starship'
p3299
I00
tp3300
a(S'throw'
p3301
I00
tp3302
a(Vtransporter
p3303
I00
tp3304
a(S'hire'
p3305
I00
tp3306
a(S'describe'
p3307
I00
tp3308
a(S'forcing'
p3309
I00
tp3310
a(S'savage'
p3311
I00
tp3312
a(S'loose'
p3313
I00
tp3314
a(S'suicide'
p3315
I00
tp3316
a(S'contains'
p3317
I00
tp3318
a(S'lust'
p3319
I00
tp3320
a(S'nina'
p3321
I00
tp3322
a(S'claimed'
p3323
I00
tp3324
a(S'hell'
p3325
I00
tp3326
a(S'expecting'
p3327
I00
tp3328
a(S'storm'
p3329
I00
tp3330
a(S'grocery'
p3331
I00
tp3332
a(S'procedural'
p3333
I00
tp3334
a(S'scotland'
p3335
I00
tp3336
a(S'latest'
p3337
I00
tp3338
a(S'practice'
p3339
I00
tp3340
a(S'jeff'
p3341
I00
tp3342
a(S'anthony'
p3343
I00
tp3344
a(S'pace'
p3345
I00
tp3346
a(S'socialism'
p3347
I00
tp3348
a(S'conflict'
p3349
I00
tp3350
a(S'reviewed'
p3351
I00
tp3352
a(S'everybody'
p3353
I00
tp3354
a(S'rut'
p3355
I00
tp3356
a(S'dull'
p3357
I00
tp3358
a(S'department'
p3359
I00
tp3360
a(S'heroine'
p3361
I00
tp3362
a(S'focused'
p3363
I00
tp3364
a(S'danger'
p3365
I00
tp3366
a(S'clara'
p3367
I00
tp3368
a(S'mentioned'
p3369
I00
tp3370
a(S'university'
p3371
I00
tp3372
a(S'interplanetary'
p3373
I00
tp3374
a(S'attack'
p3375
I00
tp3376
a(S'barabel'
p3377
I00
tp3378
a(S'winner'
p3379
I00
tp3380
a(S'achieve'
p3381
I00
tp3382
a(S'sabotage'
p3383
I00
tp3384
a(S'importance'
p3385
I00
tp3386
a(Vcent
p3387
I00
tp3388
a(S'began'
p3389
I00
tp3390
a(S'dickens'
p3391
I00
tp3392
a(S'advertised'
p3393
I00
tp3394
a(S'jaina'
p3395
I00
tp3396
a(S'kick'
p3397
I00
tp3398
a(S'medieval'
p3399
I00
tp3400
a(S'inner'
p3401
I00
tp3402
a(S'highest'
p3403
I00
tp3404
a(S'concise'
p3405
I00
tp3406
a(S'japanese'
p3407
I00
tp3408
a(S'met'
p3409
I00
tp3410
a(S'credit'
p3411
I00
tp3412
a(S'arrived'
p3413
I00
tp3414
a(S'street'
p3415
I00
tp3416
a(S'medical'
p3417
I00
tp3418
a(S'probe'
p3419
I00
tp3420
a(S'architecture'
p3421
I00
tp3422
a(S'exception'
p3423
I00
tp3424
a(S'potential'
p3425
I00
tp3426
a(S'dean'
p3427
I00
tp3428
a(S'keeper'
p3429
I00
tp3430
a(S'afternoon'
p3431
I00
tp3432
a(Vlanding
p3433
I00
tp3434
a(S'feminine'
p3435
I00
tp3436
a(S'fashioned'
p3437
I00
tp3438
a(S'handed'
p3439
I00
tp3440
a(S'daily'
p3441
I00
tp3442
a(S'manager'
p3443
I00
tp3444
a(Vtechnique
p3445
I00
tp3446
a(S'unexpected'
p3447
I00
tp3448
a(S'yuuzhan'
p3449
I00
tp3450
a(S'box'
p3451
I00
tp3452
a(S'genuinely'
p3453
I00
tp3454
a(S'sympathetic'
p3455
I00
tp3456
a(S'france'
p3457
I00
tp3458
a(S'argued'
p3459
I00
tp3460
a(S'thank'
p3461
I00
tp3462
a(S'teller'
p3463
I00
tp3464
a(S'exotic'
p3465
I00
tp3466
a(S'carry'
p3467
I00
tp3468
a(S'speaking'
p3469
I00
tp3470
a(S'squad'
p3471
I00
tp3472
a(S'paid'
p3473
I00
tp3474
a(S'surprising'
p3475
I00
tp3476
a(S'stupid'
p3477
I00
tp3478
a(S'satisfying'
p3479
I00
tp3480
a(S'dramatic'
p3481
I00
tp3482
a(S'speech'
p3483
I00
tp3484
a(S'largely'
p3485
I00
tp3486
a(S'roommate'
p3487
I00
tp3488
a(S'road'
p3489
I00
tp3490
a(S'gomez'
p3491
I00
tp3492
a(S'straightforward'
p3493
I00
tp3494
a(S'comparing'
p3495
I00
tp3496
a(S'none'
p3497
I00
tp3498
a(S'venting'
p3499
I00
tp3500
a(Vresponsibility
p3501
I00
tp3502
a(S'charm'
p3503
I00
tp3504
a(S'baltimore'
p3505
I00
tp3506
a(S'secret'
p3507
I00
tp3508
a(S'ireland'
p3509
I00
tp3510
a(S'infused'
p3511
I00
tp3512
a(S'cheerleader'
p3513
I00
tp3514
a(S'per'
p3515
I00
tp3516
a(S'handbook'
p3517
I00
tp3518
a(S'exploration'
p3519
I00
tp3520
a(S'constant'
p3521
I00
tp3522
a(S'nepotism'
p3523
I00
tp3524
a(S'cooked'
p3525
I00
tp3526
a(S'depression'
p3527
I00
tp3528
a(S'giving'
p3529
I00
tp3530
a(S'f'
p3531
I00
tp3532
a(S'willing'
p3533
I00
tp3534
a(S'descriptive'
p3535
I00
tp3536
a(S'mate'
p3537
I00
tp3538
a(S'fleshed'
p3539
I00
tp3540
a(S'reread'
p3541
I00
tp3542
a(S'nobody'
p3543
I00
tp3544
a(S'ipad'
p3545
I00
tp3546
a(S'mix'
p3547
I00
tp3548
a(S'normally'
p3549
I00
tp3550
a(S'calling'
p3551
I00
tp3552
a(S'exists'
p3553
I00
tp3554
a(S'joke'
p3555
I00
tp3556
a(S'laugh'
p3557
I00
tp3558
a(S'volunteer'
p3559
I00
tp3560
a(S'plain'
p3561
I00
tp3562
a(Vpartner
p3563
I00
tp3564
a(S'film'
p3565
I00
tp3566
a(S'reminds'
p3567
I00
tp3568
a(Vplague
p3569
I00
tp3570
a(S'j'
p3571
I00
tp3572
a(S'risk'
p3573
I00
tp3574
a(S'surrounding'
p3575
I00
tp3576
a(S'fabulous'
p3577
I00
tp3578
a(S'revolves'
p3579
I00
tp3580
a(S'badly'
p3581
I00
tp3582
a(S'london'
p3583
I00
tp3584
a(S'detroit'
p3585
I00
tp3586
a(S'victory'
p3587
I00
tp3588
a(S'tom'
p3589
I00
tp3590
a(S'raw'
p3591
I00
tp3592
a(S'rider'
p3593
I00
tp3594
a(S'reputation'
p3595
I00
tp3596
a(S'earth'
p3597
I00
tp3598
a(S'resist'
p3599
I00
tp3600
a(S'hopefully'
p3601
I00
tp3602
a(S'ladyman'
p3603
I00
tp3604
a(S'n'
p3605
I00
tp3606
a(S'technological'
p3607
I00
tp3608
a(S'escape'
p3609
I00
tp3610
a(S'annoying'
p3611
I00
tp3612
a(S'tie'
p3613
I00
tp3614
a(S'handled'
p3615
I00
tp3616
a(S'clone'
p3617
I00
tp3618
a(S'factory'
p3619
I00
tp3620
a(S'kent'
p3621
I00
tp3622
a(S'childhood'
p3623
I00
tp3624
a(S'wide'
p3625
I00
tp3626
a(S'rereading'
p3627
I00
tp3628
a(S'considered'
p3629
I00
tp3630
a(S'hear'
p3631
I00
tp3632
a(Vreaction
p3633
I00
tp3634
a(S'region'
p3635
I00
tp3636
a(S'quiet'
p3637
I00
tp3638
a(S'pot'
p3639
I00
tp3640
a(S'howard'
p3641
I00
tp3642
a(Vdirection
p3643
I00
tp3644
a(S'hughes'
p3645
I00
tp3646
a(S'cast'
p3647
I00
tp3648
a(S'changing'
p3649
I00
tp3650
a(S'rose'
p3651
I00
tp3652
a(S'dicey'
p3653
I00
tp3654
a(S'mental'
p3655
I00
tp3656
a(Vidiom
p3657
I00
tp3658
a(Vdish
p3659
I00
tp3660
a(S'worse'
p3661
I00
tp3662
a(S'thread'
p3663
I00
tp3664
a(Vinstruction
p3665
I00
tp3666
a(S'added'
p3667
I00
tp3668
a(S'reprint'
p3669
I00
tp3670
a(S'timeless'
p3671
I00
tp3672
a(S'corellia'
p3673
I00
tp3674
a(Vcomplication
p3675
I00
tp3676
a(S'teacher'
p3677
I00
tp3678
a(Vpc
p3679
I00
tp3680
a(S'buck'
p3681
I00
tp3682
a(Vdemand
p3683
I00
tp3684
a(S'lower'
p3685
I00
tp3686
a(Vprof
p3687
I00
tp3688
a(S'vivid'
p3689
I00
tp3690
a(S'dale'
p3691
I00
tp3692
a(S'helping'
p3693
I00
tp3694
a(S'dragged'
p3695
I00
tp3696
a(S'geordi'
p3697
I00
tp3698
a(S'cozy'
p3699
I00
tp3700
a(S'degree'
p3701
I00
tp3702
a(S'clever'
p3703
I00
tp3704
a(Vrape
p3705
I00
tp3706
a(S'mccoy'
p3707
I00
tp3708
a(S'tension'
p3709
I00
tp3710
a(S'abuse'
p3711
I00
tp3712
a(S'orange'
p3713
I00
tp3714
a(S'sacrifice'
p3715
I00
tp3716
a(S'anglo'
p3717
I00
tp3718
a(S'looked'
p3719
I00
tp3720
a(S'closer'
p3721
I00
tp3722
a(S'superb'
p3723
I00
tp3724
a(S'opening'
p3725
I00
tp3726
a(S'painted'
p3727
I00
tp3728
a(S'malla'
p3729
I00
tp3730
a(S'fighting'
p3731
I00
tp3732
a(S'heavily'
p3733
I00
tp3734
a(S'searching'
p3735
I00
tp3736
a(S'wesley'
p3737
I00
tp3738
a(S'conclusion'
p3739
I00
tp3740
a(S'expands'
p3741
I00
tp3742
a(S'foul'
p3743
I00
tp3744
a(S'lord'
p3745
I00
tp3746
a(S'internally'
p3747
I00
tp3748
a(S'scholar'
p3749
I00
tp3750
a(S'tired'
p3751
I00
tp3752
a(S'hanging'
p3753
I00
tp3754
a(S'ruthless'
p3755
I00
tp3756
a(S'explained'
p3757
I00
tp3758
a(S'cheating'
p3759
I00
tp3760
a(S'organized'
p3761
I00
tp3762
a(S'poverty'
p3763
I00
tp3764
a(S'complaining'
p3765
I00
tp3766
a(S'spider'
p3767
I00
tp3768
a(S'encourage'
p3769
I00
tp3770
a(S'listed'
p3771
I00
tp3772
a(S'wisdom'
p3773
I00
tp3774
a(S'boston'
p3775
I00
tp3776
a(S'dozen'
p3777
I00
tp3778
a(S'amusing'
p3779
I00
tp3780
a(S'expound'
p3781
I00
tp3782
a(S'incomplete'
p3783
I00
tp3784
a(S'caper'
p3785
I00
tp3786
a(S'pocket'
p3787
I00
tp3788
a(S'mandatory'
p3789
I00
tp3790
a(S'pirate'
p3791
I00
tp3792
a(S'pity'
p3793
I00
tp3794
a(S'asked'
p3795
I00
tp3796
a(S'nuanced'
p3797
I00
tp3798
a(S'academic'
p3799
I00
tp3800
a(S'east'
p3801
I00
tp3802
a(S'raised'
p3803
I00
tp3804
a(S'support'
p3805
I00
tp3806
a(S'nova'
p3807
I00
tp3808
a(S'humorous'
p3809
I00
tp3810
a(S'jane'
p3811
I00
tp3812
a(S'steady'
p3813
I00
tp3814
a(S'somebody'
p3815
I00
tp3816
a(S'exist'
p3817
I00
tp3818
a(S'accounting'
p3819
I00
tp3820
a(S'push'
p3821
I00
tp3822
a(S'whoever'
p3823
I00
tp3824
a(Vmachination
p3825
I00
tp3826
a(S'chair'
p3827
I00
tp3828
a(S'prevent'
p3829
I00
tp3830
a(S'spiritual'
p3831
I00
tp3832
a(S'minion'
p3833
I00
tp3834
a(S'jury'
p3835
I00
tp3836
a(S'prosecutor'
p3837
I00
tp3838
a(S'ignorant'
p3839
I00
tp3840
a(S'allowed'
p3841
I00
tp3842
a(S'winter'
p3843
I00
tp3844
a(S'su'
p3845
I00
tp3846
a(S'fu'
p3847
I00
tp3848
a(S'contained'
p3849
I00
tp3850
a(S'scudder'
p3851
I00
tp3852
a(Vbite
p3853
I00
tp3854
a(S'considerable'
p3855
I00
tp3856
a(S'dispute'
p3857
I00
tp3858
a(Vassistant
p3859
I00
tp3860
a(S'cursing'
p3861
I00
tp3862
a(S'simplistic'
p3863
I00
tp3864
a(S'dome'
p3865
I00
tp3866
a(S'comeback'
p3867
I00
tp3868
a(S'boat'
p3869
I00
tp3870
a(S'differently'
p3871
I00
tp3872
a(S'phantom'
p3873
I00
tp3874
a(S'refer'
p3875
I00
tp3876
a(S'antidote'
p3877
I00
tp3878
a(S'technically'
p3879
I00
tp3880
a(Vburglar
p3881
I00
tp3882
a(S'darker'
p3883
I00
tp3884
a(S'ai'
p3885
I00
tp3886
a(S'amused'
p3887
I00
tp3888
a(S'extract'
p3889
I00
tp3890
a(S'graduate'
p3891
I00
tp3892
a(S'sensibility'
p3893
I00
tp3894
a(S'paying'
p3895
I00
tp3896
a(S'interpreting'
p3897
I00
tp3898
a(S'harry'
p3899
I00
tp3900
a(Vpass
p3901
I00
tp3902
a(Vlegend
p3903
I00
tp3904
a(S'via'
p3905
I00
tp3906
a(S'seagull'
p3907
I00
tp3908
a(S'accept'
p3909
I00
tp3910
a(S'scifi'
p3911
I00
tp3912
a(S'authentic'
p3913
I00
tp3914
a(S'twisting'
p3915
I00
tp3916
a(S'broadcasting'
p3917
I00
tp3918
a(S'attitude'
p3919
I00
tp3920
a(S'skipped'
p3921
I00
tp3922
a(S'lynda'
p3923
I00
tp3924
a(S'appreciation'
p3925
I00
tp3926
a(S'nasaw'
p3927
I00
tp3928
a(S'understands'
p3929
I00
tp3930
a(S'obscure'
p3931
I00
tp3932
a(S'barely'
p3933
I00
tp3934
a(S'community'
p3935
I00
tp3936
a(S'representative'
p3937
I00
tp3938
a(S'evaluating'
p3939
I00
tp3940
a(S'location'
p3941
I00
tp3942
a(S'sight'
p3943
I00
tp3944
a(S'curious'
p3945
I00
tp3946
a(Vreligion
p3947
I00
tp3948
a(Vbe
p3949
I00
tp3950
a(S'jewish'
p3951
I00
tp3952
a(S'slavegirl'
p3953
I00
tp3954
a(S'mature'
p3955
I00
tp3956
a(S'fagles'
p3957
I00
tp3958
a(S'tatooine'
p3959
I00
tp3960
a(S'scratch'
p3961
I00
tp3962
a(S'continues'
p3963
I00
tp3964
a(S'video'
p3965
I00
tp3966
a(S'indian'
p3967
I00
tp3968
a(S'baroness'
p3969
I00
tp3970
a(S'survey'
p3971
I00
tp3972
a(S'defeat'
p3973
I00
tp3974
a(S'confidence'
p3975
I00
tp3976
a(Vcustomer
p3977
I00
tp3978
a(S'educational'
p3979
I00
tp3980
a(S'bump'
p3981
I00
tp3982
a(S'manuscript'
p3983
I00
tp3984
a(S'los'
p3985
I00
tp3986
a(S'depressing'
p3987
I00
tp3988
a(S'appealing'
p3989
I00
tp3990
a(S'viewed'
p3991
I00
tp3992
a(S'stronger'
p3993
I00
tp3994
a(S'asylum'
p3995
I00
tp3996
a(S'jaw'
p3997
I00
tp3998
a(S'edgar'
p3999
I00
tp4000
a(S'verne'
p4001
I00
tp4002
a(S'android'
p4003
I00
tp4004
a(S'audio'
p4005
I00
tp4006
a(S'web'
p4007
I00
tp4008
a(S'emma'
p4009
I00
tp4010
a(S'separate'
p4011
I00
tp4012
a(S'blowing'
p4013
I00
tp4014
a(S'gained'
p4015
I00
tp4016
a(S'angeles'
p4017
I00
tp4018
a(S'seedy'
p4019
I00
tp4020
a(S'austen'
p4021
I00
tp4022
a(S'mere'
p4023
I00
tp4024
a(S'delivery'
p4025
I00
tp4026
a(S'recognize'
p4027
I00
tp4028
a(S'deadly'
p4029
I00
tp4030
a(S'repeat'
p4031
I00
tp4032
a(S'chili'
p4033
I00
tp4034
a(S'charred'
p4035
I00
tp4036
a(S'negative'
p4037
I00
tp4038
a(S'law'
p4039
I00
tp4040
a(S'office'
p4041
I00
tp4042
a(S'satisfied'
p4043
I00
tp4044
a(S'production'
p4045
I00
tp4046
a(S'coffee'
p4047
I00
tp4048
a(S'electronic'
p4049
I00
tp4050
a(S'nephew'
p4051
I00
tp4052
a(S'preferred'
p4053
I00
tp4054
a(S'wynne'
p4055
I00
tp4056
a(S'eickarie'
p4057
I00
tp4058
a(Vgentleman
p4059
I00
tp4060
a(Vcon
p4061
I00
tp4062
a(S'mandelbaum'
p4063
I00
tp4064
a(S'air'
p4065
I00
tp4066
a(S'adding'
p4067
I00
tp4068
a(S'glitch'
p4069
I00
tp4070
a(S'sends'
p4071
I00
tp4072
a(S'born'
p4073
I00
tp4074
a(Vbore
p4075
I00
tp4076
a(S'wookiees'
p4077
I00
tp4078
a(S'bound'
p4079
I00
tp4080
a(Vstake
p4081
I00
tp4082
a(S'cunningham'
p4083
I00
tp4084
a(Vgut
p4085
I00
tp4086
a(S'woven'
p4087
I00
tp4088
a(S'repetitive'
p4089
I00
tp4090
a(S'rough'
p4091
I00
tp4092
a(S'supporting'
p4093
I00
tp4094
a(Vseance
p4095
I00
tp4096
a(S'homecoming'
p4097
I00
tp4098
a(S'plotted'
p4099
I00
tp4100
a(S'prove'
p4101
I00
tp4102
a(S'wonderfully'
p4103
I00
tp4104
a(S'cat'
p4105
I00
tp4106
a(S'thrackan'
p4107
I00
tp4108
a(S'discussion'
p4109
I00
tp4110
a(S'whenever'
p4111
I00
tp4112
a(S'indeed'
p4113
I00
tp4114
a(Vethic
p4115
I00
tp4116
a(S'entrpreneurship'
p4117
I00
tp4118
a(S'window'
p4119
I00
tp4120
a(Vhall
p4121
I00
tp4122
a(Vdrop
p4123
I00
tp4124
a(S'domain'
p4125
I00
tp4126
a(S'challenged'
p4127
I00
tp4128
a(S'accomplish'
p4129
I00
tp4130
a(S'receiving'
p4131
I00
tp4132
a(S'suffice'
p4133
I00
tp4134
a(S'blind'
p4135
I00
tp4136
a(Vbookmark
p4137
I00
tp4138
a(S'television'
p4139
I00
tp4140
a(S'offering'
p4141
I00
tp4142
a(S'terrific'
p4143
I00
tp4144
a(S'professional'
p4145
I00
tp4146
a(S'physically'
p4147
I00
tp4148
a(S'fascinated'
p4149
I00
tp4150
a(Varticle
p4151
I00
tp4152
a(S'characterization'
p4153
I00
tp4154
a(S'cared'
p4155
I00
tp4156
a(S'developing'
p4157
I00
tp4158
a(Vtrick
p4159
I00
tp4160
a(S'theater'
p4161
I00
tp4162
a(S'struck'
p4163
I00
tp4164
a(S'thrawn'
p4165
I00
tp4166
a(S'fortune'
p4167
I00
tp4168
a(S'benefit'
p4169
I00
tp4170
a(S'output'
p4171
I00
tp4172
a(S'twelve'
p4173
I00
tp4174
a(S'equivalent'
p4175
I00
tp4176
a(S'sixty'
p4177
I00
tp4178
a(S'fell'
p4179
I00
tp4180
a(S'assumed'
p4181
I00
tp4182
a(S'low'
p4183
I00
tp4184
a(S'scanned'
p4185
I00
tp4186
a(S'gambling'
p4187
I00
tp4188
a(S'revealed'
p4189
I00
tp4190
a(S'edited'
p4191
I00
tp4192
a(S'iraq'
p4193
I00
tp4194
a(S'ahead'
p4195
I00
tp4196
a(S'vegetarian'
p4197
I00
tp4198
a(S'trained'
p4199
I00
tp4200
a(S'revelation'
p4201
I00
tp4202
a(S'nine'
p4203
I00
tp4204
a(S'cardassian'
p4205
I00
tp4206
a(S'contrived'
p4207
I00
tp4208
a(S'matthew'
p4209
I00
tp4210
a(S'ya'
p4211
I00
tp4212
a(S'foot'
p4213
I00
tp4214
a(S'stopped'
p4215
I00
tp4216
a(S'referred'
p4217
I00
tp4218
a(S'publish'
p4219
I00
tp4220
a(S'talked'
p4221
I00
tp4222
a(S'expand'
p4223
I00
tp4224
a(S'hundred'
p4225
I00
tp4226
a(S'selling'
p4227
I00
tp4228
a(S'jamie'
p4229
I00
tp4230
a(S'jordan'
p4231
I00
tp4232
a(S'apprentice'
p4233
I00
tp4234
a(S'sensual'
p4235
I00
tp4236
a(S'clean'
p4237
I00
tp4238
a(S'piss'
p4239
I00
tp4240
a(S'sensitive'
p4241
I00
tp4242
a(Vterritory
p4243
I00
tp4244
a(S'rope'
p4245
I00
tp4246
a(S'grant'
p4247
I00
tp4248
a(S'grand'
p4249
I00
tp4250
a(S'bonus'
p4251
I00
tp4252
a(S'weakest'
p4253
I00
tp4254
a(S'retirement'
p4255
I00
tp4256
a(S'lacking'
p4257
I00
tp4258
a(S'submission'
p4259
I00
tp4260
a(S'rum'
p4261
I00
tp4262
a(S'step'
p4263
I00
tp4264
a(S'faith'
p4265
I00
tp4266
a(S'narrator'
p4267
I00
tp4268
a(S'properly'
p4269
I00
tp4270
a(S'authority'
p4271
I00
tp4272
a(S'newer'
p4273
I00
tp4274
a(S'russian'
p4275
I00
tp4276
a(S'info'
p4277
I00
tp4278
a(S'loving'
p4279
I00
tp4280
a(S'objection'
p4281
I00
tp4282
a(S'evan'
p4283
I00
tp4284
a(S'requires'
p4285
I00
tp4286
a(S'button'
p4287
I00
tp4288
a(S'tyers'
p4289
I00
tp4290
a(S'aeneid'
p4291
I00
tp4292
a(S'charming'
p4293
I00
tp4294
a(S'located'
p4295
I00
tp4296
a(S'management'
p4297
I00
tp4298
a(S'rickey'
p4299
I00
tp4300
a(S'learns'
p4301
I00
tp4302
a(S'connected'
p4303
I00
tp4304
a(S'impression'
p4305
I00
tp4306
a(S'fellow'
p4307
I00
tp4308
a(S'michigan'
p4309
I00
tp4310
a(S'horrible'
p4311
I00
tp4312
a(S'jersey'
p4313
I00
tp4314
a(Vtreat
p4315
I00
tp4316
a(S'poet'
p4317
I00
tp4318
a(S'resident'
p4319
I00
tp4320
a(S'party'
p4321
I00
tp4322
a(S'distant'
p4323
I00
tp4324
a(S'headed'
p4325
I00
tp4326
a(S'poignant'
p4327
I00
tp4328
a(S'freedom'
p4329
I00
tp4330
a(S'tongue'
p4331
I00
tp4332
a(Vstrategy
p4333
I00
tp4334
a(S'additional'
p4335
I00
tp4336
a(S'north'
p4337
I00
tp4338
a(Vdisplay
p4339
I00
tp4340
a(S'education'
p4341
I00
tp4342
a(S'fodder'
p4343
I00
tp4344
a(S'rescue'
p4345
I00
tp4346
a(S'integrity'
p4347
I00
tp4348
a(S'cardboard'
p4349
I00
tp4350
a(S'lommite'
p4351
I00
tp4352
a(S'lightsaber'
p4353
I00
tp4354
a(S'honey'
p4355
I00
tp4356
a(S'shesh'
p4357
I00
tp4358
a(S'loyalty'
p4359
I00
tp4360
a(S'president'
p4361
I00
tp4362
a(S'deck'
p4363
I00
tp4364
a(Vbone
p4365
I00
tp4366
a(S'collector'
p4367
I00
tp4368
a(S'loud'
p4369
I00
tp4370
a(S'twisted'
p4371
I00
tp4372
a(S'helen'
p4373
I00
tp4374
a(S'monica'
p4375
I00
tp4376
a(S'chronological'
p4377
I00
tp4378
a(S'vented'
p4379
I00
tp4380
a(S'cousin'
p4381
I00
tp4382
a(S'suggested'
p4383
I00
tp4384
a(Vcontribution
p4385
I00
tp4386
a(S'appeared'
p4387
I00
tp4388
a(S'deeper'
p4389
I00
tp4390
a(S'shattering'
p4391
I00
tp4392
a(S'mexico'
p4393
I00
tp4394
a(S'ii'
p4395
I00
tp4396
a(S'grown'
p4397
I00
tp4398
a(S'natal'
p4399
I00
tp4400
a(S'unnecessary'
p4401
I00
tp4402
a(S'popular'
p4403
I00
tp4404
a(S'magazine'
p4405
I00
tp4406
a(S'initial'
p4407
I00
tp4408
a(S'managed'
p4409
I00
tp4410
a(S'skip'
p4411
I00
tp4412
a(S'manages'
p4413
I00
tp4414
a(S'skim'
p4415
I00
tp4416
a(S'plagueis'
p4417
I00
tp4418
a(S'filler'
p4419
I00
tp4420
a(S'shift'
p4421
I00
tp4422
a(S'bob'
p4423
I00
tp4424
a(S'teenage'
p4425
I00
tp4426
a(Vdiscus
p4427
I00
tp4428
a(S'sake'
p4429
I00
tp4430
a(S'crazy'
p4431
I00
tp4432
a(S'delaughter'
p4433
I00
tp4434
a(S'grow'
p4435
I00
tp4436
a(S'cute'
p4437
I00
tp4438
a(Vlunch
p4439
I00
tp4440
a(S'california'
p4441
I00
tp4442
a(S'ore'
p4443
I00
tp4444
a(S'advance'
p4445
I00
tp4446
a(S'subplot'
p4447
I00
tp4448
a(S'moscow'
p4449
I00
tp4450
a(S'portrait'
p4451
I00
tp4452
a(S'affordable'
p4453
I00
tp4454
a(S'slingshot'
p4455
I00
tp4456
a(S'according'
p4457
I00
tp4458
a(S'educated'
p4459
I00
tp4460
a(S'offered'
p4461
I00
tp4462
a(S'pat'
p4463
I00
tp4464
a(S'harsh'
p4465
I00
tp4466
a(S'doctor'
p4467
I00
tp4468
a(S'struggling'
p4469
I00
tp4470
a(S'weave'
p4471
I00
tp4472
a(S'solve'
p4473
I00
tp4474
a(S'grit'
p4475
I00
tp4476
a(S'broken'
p4477
I00
tp4478
a(S'violence'
p4479
I00
tp4480
a(S'stilted'
p4481
I00
tp4482
a(S'resolution'
p4483
I00
tp4484
a(S'forget'
p4485
I00
tp4486
a(S'returning'
p4487
I00
tp4488
a(S'chekov'
p4489
I00
tp4490
a(S'titled'
p4491
I00
tp4492
a(S'movement'
p4493
I00
tp4494
a(S'margin'
p4495
I00
tp4496
a(S'whimsical'
p4497
I00
tp4498
a(S'biography'
p4499
I00
tp4500
a(Vresponse
p4501
I00
tp4502
a(S'bleak'
p4503
I00
tp4504
a(Vdragon
p4505
I00
tp4506
a(S'rounded'
p4507
I00
tp4508
a(S'existence'
p4509
I00
tp4510
a(S'seeking'
p4511
I00
tp4512
a(S'complain'
p4513
I00
tp4514
a(S'pregnant'
p4515
I00
tp4516
a(S'extended'
p4517
I00
tp4518
a(S'fist'
p4519
I00
tp4520
a(Vcircumstance
p4521
I00
tp4522
a(S'statement'
p4523
I00
tp4524
a(S'b'
p4525
I00
tp4526
a(S'gin'
p4527
I00
tp4528
a(S'nobility'
p4529
I00
tp4530
a(S'ruin'
p4531
I00
tp4532
a(Vexpert
p4533
I00
tp4534
a(S'visiting'
p4535
I00
tp4536
a(S'premise'
p4537
I00
tp4538
a(S'expensive'
p4539
I00
tp4540
a(S'bacta'
p4541
I00
tp4542
a(S'create'
p4543
I00
tp4544
a(S'orczy'
p4545
I00
tp4546
a(S'organization'
p4547
I00
tp4548
a(S'distracting'
p4549
I00
tp4550
a(Valternative
p4551
I00
tp4552
a(S'foolish'
p4553
I00
tp4554
a(S'epic'
p4555
I00
tp4556
a(S'nsa'
p4557
I00
tp4558
a(S'legacy'
p4559
I00
tp4560
a(S'random'
p4561
I00
tp4562
a(S'respectful'
p4563
I00
tp4564
a(S'choppy'
p4565
I00
tp4566
a(S'bernie'
p4567
I00
tp4568
a(Vcrow
p4569
I00
tp4570
a(S'access'
p4571
I00
tp4572
a(S'talent'
p4573
I00
tp4574
a(S'varied'
p4575
I00
tp4576
a(S'forest'
p4577
I00
tp4578
a(S'mcgrath'
p4579
I00
tp4580
a(S'uninteresting'
p4581
I00
tp4582
a(S'red'
p4583
I00
tp4584
a(S'harold'
p4585
I00
tp4586
a(S'interaction'
p4587
I00
tp4588
a(Vyard
p4589
I00
tp4590
a(Vyarn
p4591
I00
tp4592
a(S'apparently'
p4593
I00
tp4594
a(S'mil'
p4595
I00
tp4596
a(S'mid'
p4597
I00
tp4598
a(S'eight'
p4599
I00
tp4600
a(S'absurd'
p4601
I00
tp4602
a(Vselection
p4603
I00
tp4604
a(S'absorbing'
p4605
I00
tp4606
a(S'charles'
p4607
I00
tp4608
a(S'regularly'
p4609
I00
tp4610
a(S'beat'
p4611
I00
tp4612
a(S'beam'
p4613
I00
tp4614
a(S'passing'
p4615
I00
tp4616
a(S'portray'
p4617
I00
tp4618
a(S'kidnapping'
p4619
I00
tp4620
a(S'clinic'
p4621
I00
tp4622
a(Vtone
p4623
I00
tp4624
a(S'griffith'
p4625
I00
tp4626
a(S'ado'
p4627
I00
tp4628
a(S'proper'
p4629
I00
tp4630
a(S'novelist'
p4631
I00
tp4632
a(S'corpse'
p4633
I00
tp4634
a(Vhost
p4635
I00
tp4636
a(S'introduces'
p4637
I00
tp4638
a(S'cerebral'
p4639
I00
tp4640
a(S'suspenseful'
p4641
I00
tp4642
a(S'sleep'
p4643
I00
tp4644
a(S'lure'
p4645
I00
tp4646
a(S'rise'
p4647
I00
tp4648
a(S'glued'
p4649
I00
tp4650
a(S'hide'
p4651
I00
tp4652
a(S'zack'
p4653
I00
tp4654
a(Vpath
p4655
I00
tp4656
a(S'invasion'
p4657
I00
tp4658
a(S'hospital'
p4659
I00
tp4660
a(Vpreview
p4661
I00
tp4662
a(S'estate'
p4663
I00
tp4664
a(S'ancestor'
p4665
I00
tp4666
a(S'mess'
p4667
I00
tp4668
a(S'jumping'
p4669
I00
tp4670
a(S'acknowledged'
p4671
I00
tp4672
a(S'ultimate'
p4673
I00
tp4674
a(S'autopower'
p4675
I00
tp4676
a(S'sonya'
p4677
I00
tp4678
a(S'diana'
p4679
I00
tp4680
a(S'saturday'
p4681
I00
tp4682
a(S'perception'
p4683
I00
tp4684
a(S'inexpensive'
p4685
I00
tp4686
a(S'hearing'
p4687
I00
tp4688
a(S'lovable'
p4689
I00
tp4690
a(S'serve'
p4691
I00
tp4692
a(Vaztec
p4693
I00
tp4694
a(S'thorough'
p4695
I00
tp4696
a(Vclient
p4697
I00
tp4698
a(S'bsu'
p4699
I00
tp4700
a(S'radio'
p4701
I00
tp4702
a(S'corrupt'
p4703
I00
tp4704
a(Vfinger
p4705
I00
tp4706
a(S'compilation'
p4707
I00
tp4708
a(S'trust'
p4709
I00
tp4710
a(S'craft'
p4711
I00
tp4712
a(Vcatch
p4713
I00
tp4714
a(S'weren'
p4715
I00
tp4716
a(S'shortly'
p4717
I00
tp4718
a(S'possessed'
p4719
I00
tp4720
a(S'hearty'
p4721
I00
tp4722
a(S'cherry'
p4723
I00
tp4724
a(S'humanity'
p4725
I00
tp4726
a(S'advanced'
p4727
I00
tp4728
a(S'hunt'
p4729
I00
tp4730
a(S'specific'
p4731
I00
tp4732
a(S'ice'
p4733
I00
tp4734
a(S'espionage'
p4735
I00
tp4736
a(S'erotica'
p4737
I00
tp4738
a(S'presence'
p4739
I00
tp4740
a(S'civil'
p4741
I00
tp4742
a(Ventrepreneur
p4743
I00
tp4744
a(S'stuck'
p4745
I00
tp4746
a(S'virgil'
p4747
I00
tp4748
a(S'questionable'
p4749
I00
tp4750
a(S'coach'
p4751
I00
tp4752
a(S'environment'
p4753
I00
tp4754
a(S'discovering'
p4755
I00
tp4756
a(S'sloppy'
p4757
I00
tp4758
a(S'debate'
p4759
I00
tp4760
a(S'angelina'
p4761
I00
tp4762
a(S'australian'
p4763
I00
tp4764
a(S'prep'
p4765
I00
tp4766
a(S'riot'
p4767
I00
tp4768
a(S'mainly'
p4769
I00
tp4770
a(S'devastated'
p4771
I00
tp4772
a(S'equality'
p4773
I00
tp4774
a(S'realism'
p4775
I00
tp4776
a(S'origin'
p4777
I00
tp4778
a(S'necessarily'
p4779
I00
tp4780
a(S'exploring'
p4781
I00
tp4782
a(S'disequilibrium'
p4783
I00
tp4784
a(S'population'
p4785
I00
tp4786
a(S'chloe'
p4787
I00
tp4788
a(S'mindhunter'
p4789
I00
tp4790
a(S'discussing'
p4791
I00
tp4792
a(S'continuation'
p4793
I00
tp4794
a(S'hardly'
p4795
I00
tp4796
a(S'careful'
p4797
I00
tp4798
a(S'granted'
p4799
I00
tp4800
a(S'driven'
p4801
I00
tp4802
a(S'captured'
p4803
I00
tp4804
a(S'halfway'
p4805
I00
tp4806
a(S'paranormal'
p4807
I00
tp4808
a(S'oddly'
p4809
I00
tp4810
a(S'aurek'
p4811
I00
tp4812
a(S'competition'
p4813
I00
tp4814
a(S'legal'
p4815
I00
tp4816
a(S'discussed'
p4817
I00
tp4818
a(S'communication'
p4819
I00
tp4820
a(S'femdom'
p4821
I00
tp4822
a(S'strongly'
p4823
I00
tp4824
a(S'deserve'
p4825
I00
tp4826
a(S'psychology'
p4827
I00
tp4828
a(S'glimpse'
p4829
I00
tp4830
a(Vprogram
p4831
I00
tp4832
a(S'presentation'
p4833
I00
tp4834
a(S'design'
p4835
I00
tp4836
a(S'deeply'
p4837
I00
tp4838
a(S'christian'
p4839
I00
tp4840
a(S'tragedy'
p4841
I00
tp4842
a(S'sorcery'
p4843
I00
tp4844
a(S'court'
p4845
I00
tp4846
a(Vgoal
p4847
I00
tp4848
a(S'trigorin'
p4849
I00
tp4850
a(S'feed'
p4851
I00
tp4852
a(S'decadent'
p4853
I00
tp4854
a(S'park'
p4855
I00
tp4856
a(S'achieved'
p4857
I00
tp4858
a(S'arrives'
p4859
I00
tp4860
a(S'defense'
p4861
I00
tp4862
a(S'formatted'
p4863
I00
tp4864
a(S'corruption'
p4865
I00
tp4866
a(S'sold'
p4867
I00
tp4868
a(S'prelude'
p4869
I00
tp4870
a(S'stolen'
p4871
I00
tp4872
a(Vdemon
p4873
I00
tp4874
a(S'rid'
p4875
I00
tp4876
a(S'aged'
p4877
I00
tp4878
a(Vrestraint
p4879
I00
tp4880
a(S'skeptical'
p4881
I00
tp4882
a(S'seemingly'
p4883
I00
tp4884
a(S'anna'
p4885
I00
tp4886
a(S'range'
p4887
I00
tp4888
a(S'dialog'
p4889
I00
tp4890
a(S'amidst'
p4891
I00
tp4892
a(S'warning'
p4893
I00
tp4894
a(S'rainy'
p4895
I00
tp4896
a(S'allowing'
p4897
I00
tp4898
a(S'eelysia'
p4899
I00
tp4900
a(S'noted'
p4901
I00
tp4902
a(S'traveling'
p4903
I00
tp4904
a(S'concludes'
p4905
I00
tp4906
a(S'capital'
p4907
I00
tp4908
a(S'larger'
p4909
I00
tp4910
a(S'apple'
p4911
I00
tp4912
a(S'apply'
p4913
I00
tp4914
a(S'factor'
p4915
I00
tp4916
a(S'anywhere'
p4917
I00
tp4918
a(S'tay'
p4919
I00
tp4920
a(S'camille'
p4921
I00
tp4922
a(Vcarrier
p4923
I00
tp4924
a(S'honestly'
p4925
I00
tp4926
a(S'holiday'
p4927
I00
tp4928
a(S'crash'
p4929
I00
tp4930
a(S'profound'
p4931
I00
tp4932
a(S'feast'
p4933
I00
tp4934
a(Vutensil
p4935
I00
tp4936
a(S'molly'
p4937
I00
tp4938
a(S'g'
p4939
I00
tp4940
a(Vconversation
p4941
I00
tp4942
a(S'bonner'
p4943
I00
tp4944
a(S'noticed'
p4945
I00
tp4946
a(Vpublication
p4947
I00
tp4948
a(S'linked'
p4949
I00
tp4950
a(S'stormtrooper'
p4951
I00
tp4952
a(S'clash'
p4953
I00
tp4954
a(S'gain'
p4955
I00
tp4956
a(S'pleased'
p4957
I00
tp4958
a(S'futuristic'
p4959
I00
tp4960
a(S'europe'
p4961
I00
tp4962
a(S'frustrated'
p4963
I00
tp4964
a(S'duane'
p4965
I00
tp4966
a(S'wall'
p4967
I00
tp4968
a(S'divorce'
p4969
I00
tp4970
a(Vsequence
p4971
I00
tp4972
a(S'murderer'
p4973
I00
tp4974
a(Vthrone
p4975
I00
tp4976
a(S'tadzio'
p4977
I00
tp4978
a(S'incredibly'
p4979
I00
tp4980
a(S'auxiliary'
p4981
I00
tp4982
a(S'fabianism'
p4983
I00
tp4984
a(S'bringing'
p4985
I00
tp4986
a(S'sideous'
p4987
I00
tp4988
a(S'admire'
p4989
I00
tp4990
a(S'admiral'
p4991
I00
tp4992
a(Vherb
p4993
I00
tp4994
a(S'herd'
p4995
I00
tp4996
a(S'elaborate'
p4997
I00
tp4998
a(S'criticism'
p4999
I00
tp5000
a(Vclassification
p5001
I00
tp5002
a(S'dna'
p5003
I00
tp5004
a(S'music'
p5005
I00
tp5006
a(S'relax'
p5007
I00
tp5008
a(S'morally'
p5009
I00
tp5010
a(S'pursue'
p5011
I00
tp5012
a(S'famed'
p5013
I00
tp5014
a(S'household'
p5015
I00
tp5016
a(S'reviewing'
p5017
I00
tp5018
a(S'absolute'
p5019
I00
tp5020
a(S'destined'
p5021
I00
tp5022
a(S'subplots'
p5023
I00
tp5024
a(S'wing'
p5025
I00
tp5026
a(S'stevens'
p5027
I00
tp5028
a(S'represents'
p5029
I00
tp5030
a(S'addicted'
p5031
I00
tp5032
a(Vsheet
p5033
I00
tp5034
a(S'ups'
p5035
I00
tp5036
a(S'engagement'
p5037
I00
tp5038
a(S'listen'
p5039
I00
tp5040
a(S'collapse'
p5041
I00
tp5042
a(S'predictably'
p5043
I00
tp5044
a(S'chaka'
p5045
I00
tp5046
a(S'causing'
p5047
I00
tp5048
a(S'thrilled'
p5049
I00
tp5050
a(S'morality'
p5051
I00
tp5052
a(S'tech'
p5053
I00
tp5054
a(S'saying'
p5055
I00
tp5056
a(S'altogether'
p5057
I00
tp5058
a(S'respond'
p5059
I00
tp5060
a(S'disaster'
p5061
I00
tp5062
a(S'fair'
p5063
I00
tp5064
a(S'discipline'
p5065
I00
tp5066
a(S'extent'
p5067
I00
tp5068
a(S'debt'
p5069
I00
tp5070
a(S'vain'
p5071
I00
tp5072
a(S'union'
p5073
I00
tp5074
a(S'privilege'
p5075
I00
tp5076
a(S'fry'
p5077
I00
tp5078
a(S'eastern'
p5079
I00
tp5080
a(S'entrpreneurial'
p5081
I00
tp5082
a(S'remembering'
p5083
I00
tp5084
a(Vsplit
p5085
I00
tp5086
a(S'european'
p5087
I00
tp5088
a(S'corporate'
p5089
I00
tp5090
a(S'enters'
p5091
I00
tp5092
a(Vadvancement
p5093
I00
tp5094
a(Vprison
p5095
I00
tp5096
a(S'survival'
p5097
I00
tp5098
a(S'occurring'
p5099
I00
tp5100
a(S'bobby'
p5101
I00
tp5102
a(S'fog'
p5103
I00
tp5104
a(S'yorke'
p5105
I00
tp5106
a(S'starring'
p5107
I00
tp5108
a(S'freshman'
p5109
I00
tp5110
a(S'survive'
p5111
I00
tp5112
a(S'liberal'
p5113
I00
tp5114
a(S'proven'
p5115
I00
tp5116
a(S'eventual'
p5117
I00
tp5118
a(S'exact'
p5119
I00
tp5120
a(S'unaware'
p5121
I00
tp5122
a(S'sigh'
p5123
I00
tp5124
a(S'accomplishes'
p5125
I00
tp5126
a(S'abnormals'
p5127
I00
tp5128
a(S'logical'
p5129
I00
tp5130
a(S'angry'
p5131
I00
tp5132
a(S'wood'
p5133
I00
tp5134
a(S'introducing'
p5135
I00
tp5136
a(S'divided'
p5137
I00
tp5138
a(S'lido'
p5139
I00
tp5140
a(S'st'
p5141
I00
tp5142
a(S'sh'
p5143
I00
tp5144
a(S'se'
p5145
I00
tp5146
a(S'thumb'
p5147
I00
tp5148
a(S'internationally'
p5149
I00
tp5150
a(S'civilian'
p5151
I00
tp5152
a(S'nation'
p5153
I00
tp5154
a(Vcadence
p5155
I00
tp5156
a(S'plotting'
p5157
I00
tp5158
a(S'million'
p5159
I00
tp5160
a(Vpossibility
p5161
I00
tp5162
a(S'disrespect'
p5163
I00
tp5164
a(S'besides'
p5165
I00
tp5166
a(Vneglect
p5167
I00
tp5168
a(S'potter'
p5169
I00
tp5170
a(S'vote'
p5171
I00
tp5172
a(S'translate'
p5173
I00
tp5174
a(S'depressed'
p5175
I00
tp5176
a(S'sam'
p5177
I00
tp5178
a(S'sat'
p5179
I00
tp5180
a(S'crooked'
p5181
I00
tp5182
a(S'salt'
p5183
I00
tp5184
a(S'walking'
p5185
I00
tp5186
a(S'aggressive'
p5187
I00
tp5188
a(S'imagined'
p5189
I00
tp5190
a(S'guarded'
p5191
I00
tp5192
a(S'psychiatrist'
p5193
I00
tp5194
a(S'uncover'
p5195
I00
tp5196
a(S'dexter'
p5197
I00
tp5198
a(S'enlightening'
p5199
I00
tp5200
a(S'wielding'
p5201
I00
tp5202
a(S'harvey'
p5203
I00
tp5204
a(Vdenizen
p5205
I00
tp5206
a(S'uk'
p5207
I00
tp5208
a(S'supermarket'
p5209
I00
tp5210
a(S'concentrated'
p5211
I00
tp5212
a(S'zuleika'
p5213
I00
tp5214
a(S'vacation'
p5215
I00
tp5216
a(S'enable'
p5217
I00
tp5218
a(Vthousand
p5219
I00
tp5220
a(S'ive'
p5221
I00
tp5222
a(S'engages'
p5223
I00
tp5224
a(Vbeing
p5225
I00
tp5226
a(S'slimy'
p5227
I00
tp5228
a(S'esprit'
p5229
I00
tp5230
a(S'meaning'
p5231
I00
tp5232
a(Vstranger
p5233
I00
tp5234
a(S'riveting'
p5235
I00
tp5236
a(S'retains'
p5237
I00
tp5238
a(S'standpoint'
p5239
I00
tp5240
a(Vbond
p5241
I00
tp5242
a(S'burning'
p5243
I00
tp5244
a(S'wade'
p5245
I00
tp5246
a(S'hey'
p5247
I00
tp5248
a(S'handsome'
p5249
I00
tp5250
a(S'rush'
p5251
I00
tp5252
a(S'dirty'
p5253
I00
tp5254
a(S'advantage'
p5255
I00
tp5256
a(S'pulp'
p5257
I00
tp5258
a(S'novice'
p5259
I00
tp5260
a(S'tricky'
p5261
I00
tp5262
a(S'natalie'
p5263
I00
tp5264
a(S'omnibus'
p5265
I00
tp5266
a(S'behavioral'
p5267
I00
tp5268
a(S'tm'
p5269
I00
tp5270
a(S'smile'
p5271
I00
tp5272
a(S'appointment'
p5273
I00
tp5274
a(S'returned'
p5275
I00
tp5276
a(S'adjust'
p5277
I00
tp5278
a(S'tillerman'
p5279
I00
tp5280
a(S'portrays'
p5281
I00
tp5282
a(S'hast'
p5283
I00
tp5284
a(S'vaporized'
p5285
I00
tp5286
a(S'healthier'
p5287
I00
tp5288
a(S'beckwith'
p5289
I00
tp5290
a(S'verbose'
p5291
I00
tp5292
a(S'attendance'
p5293
I00
tp5294
a(S'evolved'
p5295
I00
tp5296
a(Vscam
p5297
I00
tp5298
a(S'stated'
p5299
I00
tp5300
a(S'clint'
p5301
I00
tp5302
a(S'intended'
p5303
I00
tp5304
a(Vbowl
p5305
I00
tp5306
a(S'amphistaf'
p5307
I00
tp5308
a(S'isaac'
p5309
I00
tp5310
a(Vcolleague
p5311
I00
tp5312
a(S'opportunties'
p5313
I00
tp5314
a(S'mesmerizing'
p5315
I00
tp5316
a(S'opponets'
p5317
I00
tp5318
a(S'neanderthal'
p5319
I00
tp5320
a(S'definition'
p5321
I00
tp5322
a(S'guest'
p5323
I00
tp5324
a(S'spock'
p5325
I00
tp5326
a(S'unrealistic'
p5327
I00
tp5328
a(S'grace'
p5329
I00
tp5330
a(S'determined'
p5331
I00
tp5332
a(S'artistic'
p5333
I00
tp5334
a(S'attacking'
p5335
I00
tp5336
a(S'figuring'
p5337
I00
tp5338
a(S'wayne'
p5339
I00
tp5340
a(S'closely'
p5341
I00
tp5342
a(Vcry
p5343
I00
tp5344
a(S'insane'
p5345
I00
tp5346
a(S'sea'
p5347
I00
tp5348
a(S'currently'
p5349
I00
tp5350
a(S'targeted'
p5351
I00
tp5352
a(S'influential'
p5353
I00
tp5354
a(S'pdf'
p5355
I00
tp5356
a(S'allegiance'
p5357
I00
tp5358
a(S'church'
p5359
I00
tp5360
a(Vbelt
p5361
I00
tp5362
a(S'hitting'
p5363
I00
tp5364
a(S'counselling'
p5365
I00
tp5366
a(S'handling'
p5367
I00
tp5368
a(S'pressed'
p5369
I00
tp5370
a(S'scheduled'
p5371
I00
tp5372
a(Vdecline
p5373
I00
tp5374
a(S'virtually'
p5375
I00
tp5376
a(S'comprehensive'
p5377
I00
tp5378
a(S'alert'
p5379
I00
tp5380
a(S'listening'
p5381
I00
tp5382
a(S'eager'
p5383
I00
tp5384
a(S'masterville'
p5385
I00
tp5386
a(S'patrick'
p5387
I00
tp5388
a(S'stylish'
p5389
I00
tp5390
a(S'mighty'
p5391
I00
tp5392
a(S'wildlife'
p5393
I00
tp5394
a(S'deserves'
p5395
I00
tp5396
a(S'repair'
p5397
I00
tp5398
a(S'hemingway'
p5399
I00
tp5400
a(S'ysanne'
p5401
I00
tp5402
a(Vcustom
p5403
I00
tp5404
a(S'viqi'
p5405
I00
tp5406
a(S'uh'
p5407
I00
tp5408
a(S'defined'
p5409
I00
tp5410
a(S'influence'
p5411
I00
tp5412
a(Vchar
p5413
I00
tp5414
a(S'diverse'
p5415
I00
tp5416
a(S'chat'
p5417
I00
tp5418
a(S'defines'
p5419
I00
tp5420
a(S'lucid'
p5421
I00
tp5422
a(S'flashback'
p5423
I00
tp5424
a(Vsens
p5425
I00
tp5426
a(S'stocked'
p5427
I00
tp5428
a(S'precinct'
p5429
I00
tp5430
a(S'fewer'
p5431
I00
tp5432
a(Vkansa
p5433
I00
tp5434
a(S'crook'
p5435
I00
tp5436
a(S'lanson'
p5437
I00
tp5438
a(S'index'
p5439
I00
tp5440
a(S'lee'
p5441
I00
tp5442
a(S'leg'
p5443
I00
tp5444
a(S'technical'
p5445
I00
tp5446
a(Vcasino
p5447
I00
tp5448
a(S'thats'
p5449
I00
tp5450
a(S'desiring'
p5451
I00
tp5452
a(S'whipping'
p5453
I00
tp5454
a(S'occurred'
p5455
I00
tp5456
a(S'bent'
p5457
I00
tp5458
a(Vtrumpet
p5459
I00
tp5460
a(S'destroying'
p5461
I00
tp5462
a(S'comedy'
p5463
I00
tp5464
a(S'daring'
p5465
I00
tp5466
a(S'pompous'
p5467
I00
tp5468
a(S'witness'
p5469
I00
tp5470
a(Vtroop
p5471
I00
tp5472
a(S'reaves'
p5473
I00
tp5474
a(S'greedy'
p5475
I00
tp5476
a(S'scary'
p5477
I00
tp5478
a(S'stimulate'
p5479
I00
tp5480
a(S'owned'
p5481
I00
tp5482
a(S'cloning'
p5483
I00
tp5484
a(S'false'
p5485
I00
tp5486
a(S'spelled'
p5487
I00
tp5488
a(S'paperwhite'
p5489
I00
tp5490
a(Vpsyche
p5491
I00
tp5492
a(S'lily'
p5493
I00
tp5494
a(S'wounded'
p5495
I00
tp5496
a(S'atmosphere'
p5497
I00
tp5498
a(Vdecade
p5499
I00
tp5500
a(S'noir'
p5501
I00
tp5502
a(S'riding'
p5503
I00
tp5504
a(S'disappointingly'
p5505
I00
tp5506
a(Vvitamin
p5507
I00
tp5508
a(S'keppel'
p5509
I00
tp5510
a(S'co'
p5511
I00
tp5512
a(S'picking'
p5513
I00
tp5514
a(S'surprisingly'
p5515
I00
tp5516
a(S'hubbard'
p5517
I00
tp5518
a(S'glaring'
p5519
I00
tp5520
a(S'proficiency'
p5521
I00
tp5522
a(S'pleasantly'
p5523
I00
tp5524
a(S'command'
p5525
I00
tp5526
a(S'paul'
p5527
I00
tp5528
a(Vcombine
p5529
I00
tp5530
a(S'archeological'
p5531
I00
tp5532
a(S'cogan'
p5533
I00
tp5534
a(S'flush'
p5535
I00
tp5536
a(S'disbelief'
p5537
I00
tp5538
a(S'avoid'
p5539
I00
tp5540
a(Vadversary
p5541
I00
tp5542
a(S'gutenberg'
p5543
I00
tp5544
a(S'documentary'
p5545
I00
tp5546
a(S'naturally'
p5547
I00
tp5548
a(S'apollo'
p5549
I00
tp5550
a(S'compared'
p5551
I00
tp5552
a(S'controversial'
p5553
I00
tp5554
a(S'regan'
p5555
I00
tp5556
a(S'chef'
p5557
I00
tp5558
a(S'established'
p5559
I00
tp5560
a(Vcelebration
p5561
I00
tp5562
a(S'anarchism'
p5563
I00
tp5564
a(S'blueberry'
p5565
I00
tp5566
a(S'fanciful'
p5567
I00
tp5568
a(S'disappoint'
p5569
I00
tp5570
a(S'offshore'
p5571
I00
tp5572
a(S'lay'
p5573
I00
tp5574
a(S'lap'
p5575
I00
tp5576
a(S'greed'
p5577
I00
tp5578
a(S'safe'
p5579
I00
tp5580
a(S'bane'
p5581
I00
tp5582
a(S'ofsurvivor'
p5583
I00
tp5584
a(S'reasonable'
p5585
I00
tp5586
a(S'network'
p5587
I00
tp5588
a(S'forth'
p5589
I00
tp5590
a(S'forcibly'
p5591
I00
tp5592
a(S'creates'
p5593
I00
tp5594
a(S'manchu'
p5595
I00
tp5596
a(S'tangle'
p5597
I00
tp5598
a(S'rated'
p5599
I00
tp5600
a(S'wasted'
p5601
I00
tp5602
a(S'guild'
p5603
I00
tp5604
a(Vtarget
p5605
I00
tp5606
a(S'forensic'
p5607
I00
tp5608
a(S'minus'
p5609
I00
tp5610
a(S'navigate'
p5611
I00
tp5612
a(S'refreshingly'
p5613
I00
tp5614
a(S'genuine'
p5615
I00
tp5616
a(Vphase
p5617
I00
tp5618
a(S'calmness'
p5619
I00
tp5620
a(S'pursuing'
p5621
I00
tp5622
a(S'db'
p5623
I00
tp5624
a(S'uhura'
p5625
I00
tp5626
a(S'covering'
p5627
I00
tp5628
a(Vsteal
p5629
I00
tp5630
a(S'unable'
p5631
I00
tp5632
a(S'handful'
p5633
I00
tp5634
a(S'essentially'
p5635
I00
tp5636
a(Vsteer
p5637
I00
tp5638
a(S'receives'
p5639
I00
tp5640
a(S'com'
p5641
I00
tp5642
a(S'postmodern'
p5643
I00
tp5644
a(S'applied'
p5645
I00
tp5646
a(S'aid'
p5647
I00
tp5648
a(S'stine'
p5649
I00
tp5650
a(S'punctuation'
p5651
I00
tp5652
a(S'independent'
p5653
I00
tp5654
a(S'quentin'
p5655
I00
tp5656
a(S'humble'
p5657
I00
tp5658
a(S'tho'
p5659
I00
tp5660
a(S'athletic'
p5661
I00
tp5662
a(S'transformed'
p5663
I00
tp5664
a(S'mayo'
p5665
I00
tp5666
a(S'mitchard'
p5667
I00
tp5668
a(S'beating'
p5669
I00
tp5670
a(S'constructive'
p5671
I00
tp5672
a(S'accepts'
p5673
I00
tp5674
a(S'dilemma'
p5675
I00
tp5676
a(S'strangely'
p5677
I00
tp5678
a(S'waz'
p5679
I00
tp5680
a(S'global'
p5681
I00
tp5682
a(S'grateful'
p5683
I00
tp5684
a(S'zone'
p5685
I00
tp5686
a(S'shrinkage'
p5687
I00
tp5688
a(S'terror'
p5689
I00
tp5690
a(S'anonymous'
p5691
I00
tp5692
a(S'upper'
p5693
I00
tp5694
a(S'discover'
p5695
I00
tp5696
a(S'havoc'
p5697
I00
tp5698
a(S'explosion'
p5699
I00
tp5700
a(Vpillow
p5701
I00
tp5702
a(S'inference'
p5703
I00
tp5704
a(S'club'
p5705
I00
tp5706
a(Vclue
p5707
I00
tp5708
a(Vcap
p5709
I00
tp5710
a(S'trollope'
p5711
I00
tp5712
a(S'expanding'
p5713
I00
tp5714
a(S'chip'
p5715
I00
tp5716
a(S'carroll'
p5717
I00
tp5718
a(S'grandson'
p5719
I00
tp5720
a(S'explicit'
p5721
I00
tp5722
a(S'factual'
p5723
I00
tp5724
a(S'halt'
p5725
I00
tp5726
a(S'rhodenbarr'
p5727
I00
tp5728
a(S'em'
p5729
I00
tp5730
a(S'fired'
p5731
I00
tp5732
a(S'eu'
p5733
I00
tp5734
a(S'furthermore'
p5735
I00
tp5736
a(S'thirst'
p5737
I00
tp5738
a(S'inevitably'
p5739
I00
tp5740
a(S'cary'
p5741
I00
tp5742
a(S'card'
p5743
I00
tp5744
a(S'promotion'
p5745
I00
tp5746
a(S'flying'
p5747
I00
tp5748
a(S'impossibly'
p5749
I00
tp5750
a(S'drove'
p5751
I00
tp5752
a(S'tomorrow'
p5753
I00
tp5754
a(S'silent'
p5755
I00
tp5756
a(S'typographical'
p5757
I00
tp5758
a(S'eliminated'
p5759
I00
tp5760
a(S'angel'
p5761
I00
tp5762
a(S'anger'
p5763
I00
tp5764
a(S'equipment'
p5765
I00
tp5766
a(S'objective'
p5767
I00
tp5768
a(S'intergalactic'
p5769
I00
tp5770
a(S'importantly'
p5771
I00
tp5772
a(S'forever'
p5773
I00
tp5774
a(S'flawlessly'
p5775
I00
tp5776
a(S'egg'
p5777
I00
tp5778
a(S'typically'
p5779
I00
tp5780
a(S'geography'
p5781
I00
tp5782
a(Vsnack
p5783
I00
tp5784
a(S'essence'
p5785
I00
tp5786
a(S'cannon'
p5787
I00
tp5788
a(S'logan'
p5789
I00
tp5790
a(S'scientist'
p5791
I00
tp5792
a(S'justified'
p5793
I00
tp5794
a(S'notice'
p5795
I00
tp5796
a(S'talented'
p5797
I00
tp5798
a(S'reluctantly'
p5799
I00
tp5800
a(S'madness'
p5801
I00
tp5802
a(S'dispatch'
p5803
I00
tp5804
a(S'linguistic'
p5805
I00
tp5806
a(S'empathy'
p5807
I00
tp5808
a(S'drug'
p5809
I00
tp5810
a(S'mediocre'
p5811
I00
tp5812
a(S'intelligently'
p5813
I00
tp5814
a(S'poetic'
p5815
I00
tp5816
a(S'noble'
p5817
I00
tp5818
a(S'tradition'
p5819
I00
tp5820
a(S'bondage'
p5821
I00
tp5822
a(S'charger'
p5823
I00
tp5824
a(S'coordinate'
p5825
I00
tp5826
a(S'knowledgeable'
p5827
I00
tp5828
a(S'relevant'
p5829
I00
tp5830
a(S'improvement'
p5831
I00
tp5832
a(S'spectacular'
p5833
I00
tp5834
a(Vruler
p5835
I00
tp5836
a(S'voigt'
p5837
I00
tp5838
a(S'execution'
p5839
I00
tp5840
a(S'chronology'
p5841
I00
tp5842
a(S'mafia'
p5843
I00
tp5844
a(S'ftl'
p5845
I00
tp5846
a(S'sixth'
p5847
I00
tp5848
a(Vleftover
p5849
I00
tp5850
a(S'wolf'
p5851
I00
tp5852
a(S'greatly'
p5853
I00
tp5854
a(S'outlook'
p5855
I00
tp5856
a(S'prepare'
p5857
I00
tp5858
a(Vhappening
p5859
I00
tp5860
a(S'suited'
p5861
I00
tp5862
a(S'thoughtful'
p5863
I00
tp5864
a(Vdeadline
p5865
I00
tp5866
a(S'referring'
p5867
I00
tp5868
a(S'mpd'
p5869
I00
tp5870
a(S'mild'
p5871
I00
tp5872
a(Vmile
p5873
I00
tp5874
a(S'kariek'
p5875
I00
tp5876
a(S'casual'
p5877
I00
tp5878
a(S'duology'
p5879
I00
tp5880
a(S'depend'
p5881
I00
tp5882
a(S'creepy'
p5883
I00
tp5884
a(S'requiring'
p5885
I00
tp5886
a(S'broke'
p5887
I00
tp5888
a(S'cheering'
p5889
I00
tp5890
a(S'stayed'
p5891
I00
tp5892
a(S'ego'
p5893
I00
tp5894
a(S'helm'
p5895
I00
tp5896
a(S'solving'
p5897
I00
tp5898
a(S'relate'
p5899
I00
tp5900
a(S'motivated'
p5901
I00
tp5902
a(S'prenatal'
p5903
I00
tp5904
a(S'commodore'
p5905
I00
tp5906
a(S'desperately'
p5907
I00
tp5908
a(S'candyland'
p5909
I00
tp5910
a(S'heavy'
p5911
I00
tp5912
a(S'bland'
p5913
I00
tp5914
a(S'sketched'
p5915
I00
tp5916
a(S'surrounded'
p5917
I00
tp5918
a(S'base'
p5919
I00
tp5920
a(S'earliest'
p5921
I00
tp5922
a(S'heroic'
p5923
I00
tp5924
a(S'assign'
p5925
I00
tp5926
a(S'station'
p5927
I00
tp5928
a(S'trapped'
p5929
I00
tp5930
a(S'costelloe'
p5931
I00
tp5932
a(S'scheme'
p5933
I00
tp5934
a(S'trepilov'
p5935
I00
tp5936
a(S'kam'
p5937
I00
tp5938
a(S'hired'
p5939
I00
tp5940
a(Vchronicle
p5941
I00
tp5942
a(S'mobile'
p5943
I00
tp5944
a(S'dominant'
p5945
I00
tp5946
a(S'meanwhile'
p5947
I00
tp5948
a(S'competing'
p5949
I00
tp5950
a(S'alexander'
p5951
I00
tp5952
a(S'fluff'
p5953
I00
tp5954
a(S'x'
p5955
I00
tp5956
a(S'throwing'
p5957
I00
tp5958
a(S'plausible'
p5959
I00
tp5960
a(S'familiarity'
p5961
I00
tp5962
a(S'fiance'
p5963
I00
tp5964
a(S'protector'
p5965
I00
tp5966
a(S'describes'
p5967
I00
tp5968
a(S'empty'
p5969
I00
tp5970
a(S'determination'
p5971
I00
tp5972
a(S'fleet'
p5973
I00
tp5974
a(S'pack'
p5975
I00
tp5976
a(S'costly'
p5977
I00
tp5978
a(S'darrell'
p5979
I00
tp5980
a(S'user'
p5981
I00
tp5982
a(S'haunting'
p5983
I00
tp5984
a(S'obviously'
p5985
I00
tp5986
a(S'crispin'
p5987
I00
tp5988
a(S'cave'
p5989
I00
tp5990
a(S'meritocracy'
p5991
I00
tp5992
a(S'outright'
p5993
I00
tp5994
a(S'donny'
p5995
I00
tp5996
a(S'provoking'
p5997
I00
tp5998
a(S'terminology'
p5999
I00
tp6000
a(Vsketch
p6001
I00
tp6002
a(S'delivered'
p6003
I00
tp6004
a(S'foley'
p6005
I00
tp6006
a(Vstew
p6007
I00
tp6008
a(S'nonsense'
p6009
I00
tp6010
a(S'stumbling'
p6011
I00
tp6012
a(S'accustomed'
p6013
I00
tp6014
a(S'anthology'
p6015
I00
tp6016
a(S'manhattan'
p6017
I00
tp6018
a(S'grunt'
p6019
I00
tp6020
a(S'telling'
p6021
I00
tp6022
a(S'barbara'
p6023
I00
tp6024
a(S'click'
p6025
I00
tp6026
a(S'wit'
p6027
I00
tp6028
a(S'crap'
p6029
I00
tp6030
a(S'historically'
p6031
I00
tp6032
a(S'beerbohm'
p6033
I00
tp6034
a(S'starter'
p6035
I00
tp6036
a(Vsalad
p6037
I00
tp6038
a(S'crossed'
p6039
I00
tp6040
a(S'sought'
p6041
I00
tp6042
a(S'agenda'
p6043
I00
tp6044
a(S'investigative'
p6045
I00
tp6046
a(S'neusteria'
p6047
I00
tp6048
a(S'armor'
p6049
I00
tp6050
a(S'reboot'
p6051
I00
tp6052
a(S'mankind'
p6053
I00
tp6054
a(S'stump'
p6055
I00
tp6056
a(S'precisely'
p6057
I00
tp6058
a(S'adopted'
p6059
I00
tp6060
a(S'wrapped'
p6061
I00
tp6062
a(S'punish'
p6063
I00
tp6064
a(S'arc'
p6065
I00
tp6066
a(S'providing'
p6067
I00
tp6068
a(S'exhibit'
p6069
I00
tp6070
a(S'torment'
p6071
I00
tp6072
a(Vborder
p6073
I00
tp6074
a(S'tactic'
p6075
I00
tp6076
a(S'demise'
p6077
I00
tp6078
a(S'sheriff'
p6079
I00
tp6080
a(S'inherited'
p6081
I00
tp6082
a(S'employed'
p6083
I00
tp6084
a(S'buyer'
p6085
I00
tp6086
a(S'endless'
p6087
I00
tp6088
a(S'gray'
p6089
I00
tp6090
a(S'evolution'
p6091
I00
tp6092
a(S'grad'
p6093
I00
tp6094
a(S'graf'
p6095
I00
tp6096
a(S'terrain'
p6097
I00
tp6098
a(S'desperate'
p6099
I00
tp6100
a(S'blooded'
p6101
I00
tp6102
a(S'lofty'
p6103
I00
tp6104
a(S'franchise'
p6105
I00
tp6106
a(S'cynicism'
p6107
I00
tp6108
a(Vpoem
p6109
I00
tp6110
a(S'harder'
p6111
I00
tp6112
a(S'surface'
p6113
I00
tp6114
a(S'hearted'
p6115
I00
tp6116
a(S'speaker'
p6117
I00
tp6118
a(S'absorb'
p6119
I00
tp6120
a(S'frequently'
p6121
I00
tp6122
a(S'magician'
p6123
I00
tp6124
a(S'destruction'
p6125
I00
tp6126
a(S'dressed'
p6127
I00
tp6128
a(S'increasingly'
p6129
I00
tp6130
a(S'accurate'
p6131
I00
tp6132
a(S'femme'
p6133
I00
tp6134
a(S'definitive'
p6135
I00
tp6136
a(S'livia'
p6137
I00
tp6138
a(S'loss'
p6139
I00
tp6140
a(S'shed'
p6141
I00
tp6142
a(S'liking'
p6143
I00
tp6144
a(S'reaching'
p6145
I00
tp6146
a(S'instinct'
p6147
I00
tp6148
a(S'marlowe'
p6149
I00
tp6150
a(S'equally'
p6151
I00
tp6152
a(S'accused'
p6153
I00
tp6154
a(S'museum'
p6155
I00
tp6156
a(S'medgar'
p6157
I00
tp6158
a(S'hp'
p6159
I00
tp6160
a(S'cruel'
p6161
I00
tp6162
a(S'contest'
p6163
I00
tp6164
a(S'spellbinding'
p6165
I00
tp6166
a(Vdynamic
p6167
I00
tp6168
a(S'vast'
p6169
I00
tp6170
a(S'herbert'
p6171
I00
tp6172
a(S'heading'
p6173
I00
tp6174
a(S'winded'
p6175
I00
tp6176
a(S'dry'
p6177
I00
tp6178
a(S'ignoring'
p6179
I00
tp6180
a(S'astute'
p6181
I00
tp6182
a(S'ward'
p6183
I00
tp6184
a(S'climax'
p6185
I00
tp6186
a(S'gordon'
p6187
I00
tp6188
a(S'shirt'
p6189
I00
tp6190
a(S'goodbye'
p6191
I00
tp6192
a(S'unfolds'
p6193
I00
tp6194
a(S'indulge'
p6195
I00
tp6196
a(S'haymarket'
p6197
I00
tp6198
a(S'grammar'
p6199
I00
tp6200
a(S'lucy'
p6201
I00
tp6202
a(S'taught'
p6203
I00
tp6204
a(S'nietzsche'
p6205
I00
tp6206
a(S'grade'
p6207
I00
tp6208
a(S'featured'
p6209
I00
tp6210
a(S'downside'
p6211
I00
tp6212
a(S'immensely'
p6213
I00
tp6214
a(S'dwelt'
p6215
I00
tp6216
a(Vhistorian
p6217
I00
tp6218
a(S'seed'
p6219
I00
tp6220
a(S'seek'
p6221
I00
tp6222
a(S'niece'
p6223
I00
tp6224
a(S'dog'
p6225
I00
tp6226
a(S'beaten'
p6227
I00
tp6228
a(S'brilliance'
p6229
I00
tp6230
a(S'deftly'
p6231
I00
tp6232
a(S'colorful'
p6233
I00
tp6234
a(S'bar'
p6235
I00
tp6236
a(S'abpm'
p6237
I00
tp6238
a(S'warrior'
p6239
I00
tp6240
a(S'distinction'
p6241
I00
tp6242
a(S'basis'
p6243
I00
tp6244
a(S'threw'
p6245
I00
tp6246
a(Vmushroom
p6247
I00
tp6248
a(S'suppose'
p6249
I00
tp6250
a(S'shame'
p6251
I00
tp6252
a(S'disappear'
p6253
I00
tp6254
a(S'potentially'
p6255
I00
tp6256
a(S'grows'
p6257
I00
tp6258
a(S'sentance'
p6259
I00
tp6260
a(S'garlic'
p6261
I00
tp6262
a(S'butter'
p6263
I00
tp6264
a(S'unfair'
p6265
I00
tp6266
a(S'identify'
p6267
I00
tp6268
a(Vcandidate
p6269
I00
tp6270
a(S'gustav'
p6271
I00
tp6272
a(Vorphan
p6273
I00
tp6274
a(S'dignity'
p6275
I00
tp6276
a(S'ignore'
p6277
I00
tp6278
a(Vtrace
p6279
I00
tp6280
a(S'nerve'
p6281
I00
tp6282
a(S'chooses'
p6283
I00
tp6284
a(Vdown
p6285
I00
tp6286
a(S'narration'
p6287
I00
tp6288
a(S'penned'
p6289
I00
tp6290
a(S'toss'
p6291
I00
tp6292
a(Vpotato
p6293
I00
tp6294
a(S'mill'
p6295
I00
tp6296
a(S'anticipation'
p6297
I00
tp6298
a(S'yummy'
p6299
I00
tp6300
a(S'praised'
p6301
I00
tp6302
a(S'string'
p6303
I00
tp6304
a(S'round'
p6305
I00
tp6306
a(S'french'
p6307
I00
tp6308
a(S'deceit'
p6309
I00
tp6310
a(Vbos
p6311
I00
tp6312
a(S'merely'
p6313
I00
tp6314
a(S'thru'
p6315
I00
tp6316
a(S'acceptable'
p6317
I00
tp6318
a(S'phasers'
p6319
I00
tp6320
a(S'soul'
p6321
I00
tp6322
a(S'soup'
p6323
I00
tp6324
a(S'till'
p6325
I00
tp6326
a(S'nyc'
p6327
I00
tp6328
a(S'staying'
p6329
I00
tp6330
a(S'max'
p6331
I00
tp6332
a(S'mad'
p6333
I00
tp6334
a(S'destructive'
p6335
I00
tp6336
a(S'outline'
p6337
I00
tp6338
a(S'tall'
p6339
I00
tp6340
a(S'argues'
p6341
I00
tp6342
a(S'captivated'
p6343
I00
tp6344
a(S'dialect'
p6345
I00
tp6346
a(S'summary'
p6347
I00
tp6348
a(S'monster'
p6349
I00
tp6350
a(S'cheese'
p6351
I00
tp6352
a(S'rachel'
p6353
I00
tp6354
a(S'cheesy'
p6355
I00
tp6356
a(Vrebuttal
p6357
I00
tp6358
a(S'accurately'
p6359
I00
tp6360
a(S'infiltrate'
p6361
I00
tp6362
a(S'sailing'
p6363
I00
tp6364
a(S'gathering'
p6365
I00
tp6366
a(S'pain'
p6367
I00
tp6368
a(S'theatre'
p6369
I00
tp6370
a(S'assault'
p6371
I00
tp6372
a(S'pair'
p6373
I00
tp6374
a(S'corner'
p6375
I00
tp6376
a(S'awareness'
p6377
I00
tp6378
a(S'gem'
p6379
I00
tp6380
a(S'morning'
p6381
I00
tp6382
a(S'thesis'
p6383
I00
tp6384
a(S'relative'
p6385
I00
tp6386
a(S'chewy'
p6387
I00
tp6388
a(S'comprehend'
p6389
I00
tp6390
a(S'minichino'
p6391
I00
tp6392
a(S'ongoing'
p6393
I00
tp6394
a(S'investigating'
p6395
I00
tp6396
a(S'awakened'
p6397
I00
tp6398
a(Vpan
p6399
I00
tp6400
a(S'disappointment'
p6401
I00
tp6402
a(S'assist'
p6403
I00
tp6404
a(S'amazed'
p6405
I00
tp6406
a(S'clueless'
p6407
I00
tp6408
a(S'extensive'
p6409
I00
tp6410
a(S'robbery'
p6411
I00
tp6412
a(S'served'
p6413
I00
tp6414
a(S'titan'
p6415
I00
tp6416
a(S'centerpoint'
p6417
I00
tp6418
a(S'gross'
p6419
I00
tp6420
a(S'genetics'
p6421
I00
tp6422
a(S'notably'
p6423
I00
tp6424
a(S'sophisticated'
p6425
I00
tp6426
a(S'bookstore'
p6427
I00
tp6428
a(S'romantic'
p6429
I00
tp6430
a(Vfile
p6431
I00
tp6432
a(S'lifetime'
p6433
I00
tp6434
a(S'stood'
p6435
I00
tp6436
a(S'operating'
p6437
I00
tp6438
a(S'bible'
p6439
I00
tp6440
a(S'lasagna'
p6441
I00
tp6442
a(S'destination'
p6443
I00
tp6444
a(S'canon'
p6445
I00
tp6446
a(S'recall'
p6447
I00
tp6448
a(S'del'
p6449
I00
tp6450
a(S'greeley'
p6451
I00
tp6452
a(S'homicide'
p6453
I00
tp6454
a(S'awkward'
p6455
I00
tp6456
a(S'orchard'
p6457
I00
tp6458
a(S'industrial'
p6459
I00
tp6460
a(S'suffer'
p6461
I00
tp6462
a(S'thrilling'
p6463
I00
tp6464
a(S'micro'
p6465
I00
tp6466
a(Vrumor
p6467
I00
tp6468
a(S'pleasant'
p6469
I00
tp6470
a(S'needing'
p6471
I00
tp6472
a(S'dont'
p6473
I00
tp6474
a(S'waged'
p6475
I00
tp6476
a(S'utilized'
p6477
I00
tp6478
a(S'assumption'
p6479
I00
tp6480
a(Vneedle
p6481
I00
tp6482
a(S'interactive'
p6483
I00
tp6484
a(S'salmon'
p6485
I00
tp6486
a(S'scattered'
p6487
I00
tp6488
a(S'relation'
p6489
I00
tp6490
a(S'cell'
p6491
I00
tp6492
a(S'nervous'
p6493
I00
tp6494
a(S'cheaper'
p6495
I00
tp6496
a(Vtheft
p6497
I00
tp6498
a(S'cynical'
p6499
I00
tp6500
a(S'manly'
p6501
I00
tp6502
a(S'tender'
p6503
I00
tp6504
a(S'iron'
p6505
I00
tp6506
a(S'foreign'
p6507
I00
tp6508
a(S'alot'
p6509
I00
tp6510
a(S'kathy'
p6511
I00
tp6512
a(S'cruelty'
p6513
I00
tp6514
a(S'bill'
p6515
I00
tp6516
a(Vdecoration
p6517
I00
tp6518
a(S'discourse'
p6519
I00
tp6520
a(S'assignment'
p6521
I00
tp6522
a(Vpurpose
p6523
I00
tp6524
a(S'letting'
p6525
I00
tp6526
a(S'alternate'
p6527
I00
tp6528
a(S'excited'
p6529
I00
tp6530
a(S'knock'
p6531
I00
tp6532
a(S'semi'
p6533
I00
tp6534
a(S'google'
p6535
I00
tp6536
a(S'underdeveloped'
p6537
I00
tp6538
a(Vpen
p6539
I00
tp6540
a(S'laughing'
p6541
I00
tp6542
a(S'patient'
p6543
I00
tp6544
a(S'remembered'
p6545
I00
tp6546
a(S'hawkish'
p6547
I00
tp6548
a(S'bored'
p6549
I00
tp6550
a(S'directed'
p6551
I00
tp6552
a(S'deprive'
p6553
I00
tp6554
a(S'engineering'
p6555
I00
tp6556
a(S'prevail'
p6557
I00
tp6558
a(S'forewarned'
p6559
I00
tp6560
a(Vfavourite
p6561
I00
tp6562
a(S'prepared'
p6563
I00
tp6564
a(S'presenting'
p6565
I00
tp6566
a(S'jason'
p6567
I00
tp6568
a(S'cynthia'
p6569
I00
tp6570
a(S'intricate'
p6571
I00
tp6572
a(Vdessert
p6573
I00
tp6574
a(S'anachronistic'
p6575
I00
tp6576
a(S'uncomfortably'
p6577
I00
tp6578
a(S'subtle'
p6579
I00
tp6580
a(S'chicago'
p6581
I00
tp6582
a(S'justification'
p6583
I00
tp6584
a(S'composed'
p6585
I00
tp6586
a(S'trail'
p6587
I00
tp6588
a(S'praise'
p6589
I00
tp6590
a(S'closing'
p6591
I00
tp6592
a(S'effectively'
p6593
I00
tp6594
a(S'democracy'
p6595
I00
tp6596
a(S'oral'
p6597
I00
tp6598
a(S'bunch'
p6599
I00
tp6600
a(S'lo'
p6601
I00
tp6602
a(S'lt'
p6603
I00
tp6604
a(S'dad'
p6605
I00
tp6606
a(S'spell'
p6607
I00
tp6608
a(S'cutting'
p6609
I00
tp6610
a(S'thrill'
p6611
I00
tp6612
a(S'experienced'
p6613
I00
tp6614
a(S'flair'
p6615
I00
tp6616
a(S'pantry'
p6617
I00
tp6618
a(S'rey'
p6619
I00
tp6620
a(S'sentience'
p6621
I00
tp6622
a(S'franc'
p6623
I00
tp6624
a(S'strategic'
p6625
I00
tp6626
a(Vhurdle
p6627
I00
tp6628
a(S'reached'
p6629
I00
tp6630
a(S'ancient'
p6631
I00
tp6632
a(S'sadly'
p6633
I00
tp6634
a(S'completed'
p6635
I00
tp6636
a(S'environmental'
p6637
I00
tp6638
a(S'glamorous'
p6639
I00
tp6640
a(S'depends'
p6641
I00
tp6642
a(S'imaginative'
p6643
I00
tp6644
a(S'clive'
p6645
I00
tp6646
a(Vdisease
p6647
I00
tp6648
a(S'visualized'
p6649
I00
tp6650
a(S'traitor'
p6651
I00
tp6652
a(S'inspiring'
p6653
I00
tp6654
a(S'yleisa'
p6655
I00
tp6656
a(S'exceptional'
p6657
I00
tp6658
a(S'bear'
p6659
I00
tp6660
a(Vbean
p6661
I00
tp6662
a(S'national'
p6663
I00
tp6664
a(Vpattern
p6665
I00
tp6666
a(S'progress'
p6667
I00
tp6668
a(S'deliver'
p6669
I00
tp6670
a(S'commenting'
p6671
I00
tp6672
a(S'equal'
p6673
I00
tp6674
a(S'attributed'
p6675
I00
tp6676
a(S'vent'
p6677
I00
tp6678
a(S'ambushed'
p6679
I00
tp6680
a(S'uninitiated'
p6681
I00
tp6682
a(S'earning'
p6683
I00
tp6684
a(S'tremendous'
p6685
I00
tp6686
a(S'goddess'
p6687
I00
tp6688
a(S'ridden'
p6689
I00
tp6690
a(S'frustrating'
p6691
I00
tp6692
a(S'likable'
p6693
I00
tp6694
a(S'insure'
p6695
I00
tp6696
a(Vmuscle
p6697
I00
tp6698
a(Vsoviet
p6699
I00
tp6700
a(S'insert'
p6701
I00
tp6702
a(S'soft'
p6703
I00
tp6704
a(S'accessible'
p6705
I00
tp6706
a(S'njo'
p6707
I00
tp6708
a(S'convey'
p6709
I00
tp6710
a(S'recommendation'
p6711
I00
tp6712
a(S'pepper'
p6713
I00
tp6714
a(S'slight'
p6715
I00
tp6716
a(Vtome
p6717
I00
tp6718
a(S'utopian'
p6719
I00
tp6720
a(S'biggest'
p6721
I00
tp6722
a(S'wise'
p6723
I00
tp6724
a(S'dangerous'
p6725
I00
tp6726
a(Vpit
p6727
I00
tp6728
a(S'manybooks'
p6729
I00
tp6730
a(S'thoreau'
p6731
I00
tp6732
a(S'baked'
p6733
I00
tp6734
a(S'mccaffrey'
p6735
I00
tp6736
a(S'paris'
p6737
I00
tp6738
a(S'loneliness'
p6739
I00
tp6740
a(S'blue'
p6741
I00
tp6742
a(S'selected'
p6743
I00
tp6744
a(S'ruber'
p6745
I00
tp6746
a(S'midway'
p6747
I00
tp6748
a(S'mallatobuck'
p6749
I00
tp6750
a(S'tremendously'
p6751
I00
tp6752
a(S'entertained'
p6753
I00
tp6754
a(S'fortress'
p6755
I00
tp6756
a(S'mayhem'
p6757
I00
tp6758
a(S'archaeology'
p6759
I00
tp6760
a(S'executed'
p6761
I00
tp6762
a(Vorang
p6763
I00
tp6764
a(S'borneo'
p6765
I00
tp6766
a(S'physicist'
p6767
I00
tp6768
a(S'filling'
p6769
I00
tp6770
a(S'laid'
p6771
I00
tp6772
a(S'onto'
p6773
I00
tp6774
a(S'rank'
p6775
I00
tp6776
a(S'philosophical'
p6777
I00
tp6778
a(S'tos'
p6779
I00
tp6780
a(S'k'
p6781
I00
tp6782
a(S'bridge'
p6783
I00
tp6784
a(Vrat
p6785
I00
tp6786
a(S'snow'
p6787
I00
tp6788
a(S'oriented'
p6789
I00
tp6790
a(S'coin'
p6791
I00
tp6792
a(S'prostitute'
p6793
I00
tp6794
a(S'bain'
p6795
I00
tp6796
a(S'adoration'
p6797
I00
tp6798
a(S'spite'
p6799
I00
tp6800
a(S'continuity'
p6801
I00
tp6802
a(S'neener'
p6803
I00
tp6804
a(S'mixture'
p6805
I00
tp6806
a(S'chrestomanci'
p6807
I00
tp6808
a(S'wedding'
p6809
I00
tp6810
a(Vnut
p6811
I00
tp6812
a(S'disturbing'
p6813
I00
tp6814
a(Vcapacity
p6815
I00
tp6816
a(S'blaster'
p6817
I00
tp6818
a(S'confusion'
p6819
I00
tp6820
a(S'improve'
p6821
I00
tp6822
a(S'faced'
p6823
I00
tp6824
a(S'comical'
p6825
I00
tp6826
a(S'beef'
p6827
I00
tp6828
a(S'confident'
p6829
I00
tp6830
a(S'belongs'
p6831
I00
tp6832
a(S'oppenheim'
p6833
I00
tp6834
a(S'procedure'
p6835
I00
tp6836
a(S'provocative'
p6837
I00
tp6838
a(S'preconceived'
p6839
I00
tp6840
a(S'satellite'
p6841
I00
tp6842
a(S'cycle'
p6843
I00
tp6844
a(S'jean'
p6845
I00
tp6846
a(S'proposes'
p6847
I00
tp6848
a(S'teenager'
p6849
I00
tp6850
a(S'consideration'
p6851
I00
tp6852
a(S'sussex'
p6853
I00
tp6854
a(Vjudge
p6855
I00
tp6856
a(S'intertwined'
p6857
I00
tp6858
a(S'renamed'
p6859
I00
tp6860
a(S'hung'
p6861
I00
tp6862
a(S'gifted'
p6863
I00
tp6864
a(S'intellect'
p6865
I00
tp6866
a(S'combat'
p6867
I00
tp6868
a(S'cord'
p6869
I00
tp6870
a(S'plug'
p6871
I00
tp6872
a(Vlimitation
p6873
I00
tp6874
a(S'cowboy'
p6875
I00
tp6876
a(Vduke
p6877
I00
tp6878
a(S'primitive'
p6879
I00
tp6880
a(S'heinous'
p6881
I00
tp6882
a(S'admiration'
p6883
I00
tp6884
a(S'ruined'
p6885
I00
tp6886
a(S'paging'
p6887
I00
tp6888
a(S'constructed'
p6889
I00
tp6890
a(S'faithful'
p6891
I00
tp6892
a(S'whereas'
p6893
I00
tp6894
a(S'younger'
p6895
I00
tp6896
a(S'faster'
p6897
I00
tp6898
a(S'tested'
p6899
I00
tp6900
a(S'ryder'
p6901
I00
tp6902
a(S'broadly'
p6903
I00
tp6904
a(S'porn'
p6905
I00
tp6906
a(S'trend'
p6907
I00
tp6908
a(Vsubstitute
p6909
I00
tp6910
a(S'morgan'
p6911
I00
tp6912
a(S'fluke'
p6913
I00
tp6914
a(S'weird'
p6915
I00
tp6916
a(S'chocolate'
p6917
I00
tp6918
a(S'asimov'
p6919
I00
tp6920
a(Vcritic
p6921
I00
tp6922
a(S'dropped'
p6923
I00
tp6924
a(S'dorvalla'
p6925
I00
tp6926
a(S'eloquent'
p6927
I00
tp6928
a(S'vital'
p6929
I00
tp6930
a(S'speaks'
p6931
I00
tp6932
a(S'granddaughter'
p6933
I00
tp6934
a(S'eighty'
p6935
I00
tp6936
a(S'eighth'
p6937
I00
tp6938
a(S'classroom'
p6939
I00
tp6940
a(S'falsificationism'
p6941
I00
tp6942
a(S'begun'
p6943
I00
tp6944
a(S'authenticity'
p6945
I00
tp6946
a(S'hacker'
p6947
I00
tp6948
a(S'attracted'
p6949
I00
tp6950
a(S'deceived'
p6951
I00
tp6952
a(S'suspend'
p6953
I00
tp6954
a(S'personage'
p6955
I00
tp6956
a(S'season'
p6957
I00
tp6958
a(S'callaghan'
p6959
I00
tp6960
a(S'shirley'
p6961
I00
tp6962
a(Vserf
p6963
I00
tp6964
a(Vpro
p6965
I00
tp6966
a(S'verrian'
p6967
I00
tp6968
a(Vconversion
p6969
I00
tp6970
a(S'multiply'
p6971
I00
tp6972
a(S'proud'
p6973
I00
tp6974
a(S'explicitly'
p6975
I00
tp6976
a(Vexpectation
p6977
I00
tp6978
a(S'reveal'
p6979
I00
tp6980
a(S'regarding'
p6981
I00
tp6982
a(S'ignores'
p6983
I00
tp6984
a(S'hammett'
p6985
I00
tp6986
a(S'managing'
p6987
I00
tp6988
a(S'color'
p6989
I00
tp6990
a(S'colony'
p6991
I00
tp6992
a(S'featuring'
p6993
I00
tp6994
a(S'moll'
p6995
I00
tp6996
a(S'cartoon'
p6997
I00
tp6998
a(Vlonging
p6999
I00
tp7000
a(S'mirren'
p7001
I00
tp7002
a(S'plotline'
p7003
I00
tp7004
a(S'actress'
p7005
I00
tp7006
a(S'polish'
p7007
I00
tp7008
a(S'empiricism'
p7009
I00
tp7010
a(S'disrupt'
p7011
I00
tp7012
a(S'fridge'
p7013
I00
tp7014
a(S'mood'
p7015
I00
tp7016
a(S'communicate'
p7017
I00
tp7018
a(S'rising'
p7019
I00
tp7020
a(S'strict'
p7021
I00
tp7022
a(S'expatriate'
p7023
I00
tp7024
a(S'regard'
p7025
I00
tp7026
a(S'britain'
p7027
I00
tp7028
a(S'incorrect'
p7029
I00
tp7030
a(S'abyss'
p7031
I00
tp7032
a(S'briefly'
p7033
I00
tp7034
a(S'biostats'
p7035
I00
tp7036
a(Vsymbol
p7037
I00
tp7038
a(S'cove'
p7039
I00
tp7040
a(S'chinese'
p7041
I00
tp7042
a(Vala
p7043
I00
tp7044
a(S'song'
p7045
I00
tp7046
a(S'fat'
p7047
I00
tp7048
a(S'ten'
p7049
I00
tp7050
a(S'tea'
p7051
I00
tp7052
a(S'ted'
p7053
I00
tp7054
a(S'hesitation'
p7055
I00
tp7056
a(S'sub'
p7057
I00
tp7058
a(S'instilling'
p7059
I00
tp7060
a(S'intersect'
p7061
I00
tp7062
a(S'condensed'
p7063
I00
tp7064
a(S'supposedly'
p7065
I00
tp7066
a(S'observing'
p7067
I00
tp7068
a(S'geared'
p7069
I00
tp7070
a(S'naval'
p7071
I00
tp7072
a(S'thankfully'
p7073
I00
tp7074
a(S'flag'
p7075
I00
tp7076
a(S'riki'
p7077
I00
tp7078
a(S'stephen'
p7079
I00
tp7080
a(S'alter'
p7081
I00
tp7082
a(S'predator'
p7083
I00
tp7084
a(S'adventurous'
p7085
I00
tp7086
a(S'bigger'
p7087
I00
tp7088
a(S'intricacy'
p7089
I00
tp7090
a(S'weight'
p7091
I00
tp7092
a(Vhill
p7093
I00
tp7094
a(S'prejudice'
p7095
I00
tp7096
a(S'fancy'
p7097
I00
tp7098
a(S'revolution'
p7099
I00
tp7100
a(S'resnick'
p7101
I00
tp7102
a(Vblank
p7103
I00
tp7104
a(Vtraveler
p7105
I00
tp7106
a(S'passed'
p7107
I00
tp7108
a(S'pitted'
p7109
I00
tp7110
a(S'luckily'
p7111
I00
tp7112
a(Varchitect
p7113
I00
tp7114
a(S'motivation'
p7115
I00
tp7116
a(S'outstanding'
p7117
I00
tp7118
a(S'reunited'
p7119
I00
tp7120
a(S'isard'
p7121
I00
tp7122
a(S'mistaken'
p7123
I00
tp7124
a(S'dijon'
p7125
I00
tp7126
a(S'competent'
p7127
I00
tp7128
a(S'condo'
p7129
I00
tp7130
a(S'kams'
p7131
I00
tp7132
a(Vbandit
p7133
I00
tp7134
a(S'roman'
p7135
I00
tp7136
a(S'albeit'
p7137
I00
tp7138
a(S'duh'
p7139
I00
tp7140
a(S'startling'
p7141
I00
tp7142
a(S'pg'
p7143
I00
tp7144
a(S'pi'
p7145
I00
tp7146
a(S'institutionalized'
p7147
I00
tp7148
a(S'batch'
p7149
I00
tp7150
a(Vbarricade
p7151
I00
tp7152
a(S'widely'
p7153
I00
tp7154
a(S'advise'
p7155
I00
tp7156
a(S'knack'
p7157
I00
tp7158
a(Vnoodle
p7159
I00
tp7160
a(S'regardless'
p7161
I00
tp7162
a(S'meanest'
p7163
I00
tp7164
a(S'profitable'
p7165
I00
tp7166
a(S'likeable'
p7167
I00
tp7168
a(S'shaped'
p7169
I00
tp7170
a(S'unstable'
p7171
I00
tp7172
a(S'gradually'
p7173
I00
tp7174
a(S'capon'
p7175
I00
tp7176
a(S'intense'
p7177
I00
tp7178
a(S'credible'
p7179
I00
tp7180
a(S'plethora'
p7181
I00
tp7182
a(S'analyze'
p7183
I00
tp7184
a(S'outpost'
p7185
I00
tp7186
a(S'associated'
p7187
I00
tp7188
a(S'income'
p7189
I00
tp7190
a(S'develops'
p7191
I00
tp7192
a(S'gang'
p7193
I00
tp7194
a(S'drinking'
p7195
I00
tp7196
a(S'dealt'
p7197
I00
tp7198
a(S'smaller'
p7199
I00
tp7200
a(S'ripped'
p7201
I00
tp7202
a(Vfolk
p7203
I00
tp7204
a(S'settling'
p7205
I00
tp7206
a(S'apt'
p7207
I00
tp7208
a(S'volt'
p7209
I00
tp7210
a(S'summation'
p7211
I00
tp7212
a(S'depicted'
p7213
I00
tp7214
a(S'entwined'
p7215
I00
tp7216
a(S'villain'
p7217
I00
tp7218
a(S'tag'
p7219
I00
tp7220
a(S'united'
p7221
I00
tp7222
a(S'sit'
p7223
I00
tp7224
a(S'cholera'
p7225
I00
tp7226
a(S'expatriation'
p7227
I00
tp7228
a(S'wwii'
p7229
I00
tp7230
a(S'superior'
p7231
I00
tp7232
a(S'complicate'
p7233
I00
tp7234
a(S'permanent'
p7235
I00
tp7236
a(S'reilly'
p7237
I00
tp7238
a(S'bumbling'
p7239
I00
tp7240
a(S'ebooks'
p7241
I00
tp7242
a(S'category'
p7243
I00
tp7244
a(S'vca'
p7245
I00
tp7246
a(S'chaos'
p7247
I00
tp7248
a(S'stupidity'
p7249
I00
tp7250
a(S'canarans'
p7251
I00
tp7252
a(S'hence'
p7253
I00
tp7254
a(S'tidbit'
p7255
I00
tp7256
a(S'agreed'
p7257
I00
tp7258
a(S'purely'
p7259
I00
tp7260
a(S'married'
p7261
I00
tp7262
a(S'artsy'
p7263
I00
tp7264
a(S'unfairly'
p7265
I00
tp7266
a(S'spoil'
p7267
I00
tp7268
a(S'jon'
p7269
I00
tp7270
a(S'responds'
p7271
I00
tp7272
a(S'literal'
p7273
I00
tp7274
a(S'thou'
p7275
I00
tp7276
a(S'gothic'
p7277
I00
tp7278
a(Vthug
p7279
I00
tp7280
a(S'vintage'
p7281
I00
tp7282
a(S'cross'
p7283
I00
tp7284
a(Vdisciple
p7285
I00
tp7286
a(S'conceived'
p7287
I00
tp7288
a(S'beast'
p7289
I00
tp7290
a(S'undertakes'
p7291
I00
tp7292
a(S'firstly'
p7293
I00
tp7294
a(S'usage'
p7295
I00
tp7296
a(S'identical'
p7297
I00
tp7298
a(S'growth'
p7299
I00
tp7300
a(Vleap
p7301
I00
tp7302
a(S'trout'
p7303
I00
tp7304
a(S'slut'
p7305
I00
tp7306
a(S'rare'
p7307
I00
tp7308
a(S'sweat'
p7309
I00
tp7310
a(S'riordan'
p7311
I00
tp7312
a(S'ruling'
p7313
I00
tp7314
a(S'cake'
p7315
I00
tp7316
a(S'meaningless'
p7317
I00
tp7318
a(S'incredible'
p7319
I00
tp7320
a(S'percent'
p7321
I00
tp7322
a(S'kinda'
p7323
I00
tp7324
a(S'conjure'
p7325
I00
tp7326
a(S'originality'
p7327
I00
tp7328
a(S'lore'
p7329
I00
tp7330
a(Vdelf
p7331
I00
tp7332
a(S'regional'
p7333
I00
tp7334
a(S'eugenics'
p7335
I00
tp7336
a(S'leisurely'
p7337
I00
tp7338
a(S'crotch'
p7339
I00
tp7340
a(S'succession'
p7341
I00
tp7342
a(S'stereotypical'
p7343
I00
tp7344
a(S'specially'
p7345
I00
tp7346
a(S'isshadow'
p7347
I00
tp7348
a(S'pulse'
p7349
I00
tp7350
a(S'elegant'
p7351
I00
tp7352
a(S'sterile'
p7353
I00
tp7354
a(S'kirzner'
p7355
I00
tp7356
a(S'contributed'
p7357
I00
tp7358
a(S'specialist'
p7359
I00
tp7360
a(S'herc'
p7361
I00
tp7362
a(S'reported'
p7363
I00
tp7364
a(S'substance'
p7365
I00
tp7366
a(S'climbed'
p7367
I00
tp7368
a(S'controversy'
p7369
I00
tp7370
a(S'controled'
p7371
I00
tp7372
a(S'projection'
p7373
I00
tp7374
a(S'spoke'
p7375
I00
tp7376
a(S'kidknappers'
p7377
I00
tp7378
a(S'nessus'
p7379
I00
tp7380
a(S'tying'
p7381
I00
tp7382
a(S'hole'
p7383
I00
tp7384
a(S'extradimensional'
p7385
I00
tp7386
a(S'blade'
p7387
I00
tp7388
a(S'foodie'
p7389
I00
tp7390
a(S'artillery'
p7391
I00
tp7392
a(S'mopos'
p7393
I00
tp7394
a(S'provincial'
p7395
I00
tp7396
a(S'worldview'
p7397
I00
tp7398
a(S'damage'
p7399
I00
tp7400
a(S'revisit'
p7401
I00
tp7402
a(S'groaner'
p7403
I00
tp7404
a(S'preferable'
p7405
I00
tp7406
a(S'classify'
p7407
I00
tp7408
a(S'abstraction'
p7409
I00
tp7410
a(S'envied'
p7411
I00
tp7412
a(S'chareters'
p7413
I00
tp7414
a(S'headquarters'
p7415
I00
tp7416
a(S'luring'
p7417
I00
tp7418
a(S'orally'
p7419
I00
tp7420
a(S'wine'
p7421
I00
tp7422
a(Vrestriction
p7423
I00
tp7424
a(S'dreamed'
p7425
I00
tp7426
a(S'simplifies'
p7427
I00
tp7428
a(Vdreamer
p7429
I00
tp7430
a(S'lovingly'
p7431
I00
tp7432
a(S'mysoginistic'
p7433
I00
tp7434
a(S'rescued'
p7435
I00
tp7436
a(S'distinguishing'
p7437
I00
tp7438
a(S'admirable'
p7439
I00
tp7440
a(S'selleck'
p7441
I00
tp7442
a(S'programed'
p7443
I00
tp7444
a(S'enrich'
p7445
I00
tp7446
a(S'collge'
p7447
I00
tp7448
a(S'structural'
p7449
I00
tp7450
a(Vrumour
p7451
I00
tp7452
a(S'averse'
p7453
I00
tp7454
a(S'whim'
p7455
I00
tp7456
a(S'alcott'
p7457
I00
tp7458
a(S'precedes'
p7459
I00
tp7460
a(S'laboratory'
p7461
I00
tp7462
a(S'borne'
p7463
I00
tp7464
a(S'diction'
p7465
I00
tp7466
a(S'rr'
p7467
I00
tp7468
a(S'oprah'
p7469
I00
tp7470
a(S'ha'
p7471
I00
tp7472
a(S'mason'
p7473
I00
tp7474
a(S'adapt'
p7475
I00
tp7476
a(S'dashiell'
p7477
I00
tp7478
a(S'threatened'
p7479
I00
tp7480
a(S'corrects'
p7481
I00
tp7482
a(S'planetdual'
p7483
I00
tp7484
a(S'knit'
p7485
I00
tp7486
a(Vcornerstone
p7487
I00
tp7488
a(S'suspensefull'
p7489
I00
tp7490
a(S'enormous'
p7491
I00
tp7492
a(S'ate'
p7493
I00
tp7494
a(S'mcqueen'
p7495
I00
tp7496
a(S'shipped'
p7497
I00
tp7498
a(S'subtlety'
p7499
I00
tp7500
a(S'playfully'
p7501
I00
tp7502
a(Vveggie
p7503
I00
tp7504
a(S'wash'
p7505
I00
tp7506
a(S'spinning'
p7507
I00
tp7508
a(S'clarity'
p7509
I00
tp7510
a(S'similarly'
p7511
I00
tp7512
a(S'outstandingly'
p7513
I00
tp7514
a(S'bitter'
p7515
I00
tp7516
a(S'ranging'
p7517
I00
tp7518
a(S'canned'
p7519
I00
tp7520
a(S'zany'
p7521
I00
tp7522
a(S'showed'
p7523
I00
tp7524
a(S'rusty'
p7525
I00
tp7526
a(S'idle'
p7527
I00
tp7528
a(S'skimmed'
p7529
I00
tp7530
a(S'acquisition'
p7531
I00
tp7532
a(S'napalm'
p7533
I00
tp7534
a(S'gulped'
p7535
I00
tp7536
a(S'spectrum'
p7537
I00
tp7538
a(S'corny'
p7539
I00
tp7540
a(S'sharita'
p7541
I00
tp7542
a(S'paddled'
p7543
I00
tp7544
a(S'implemented'
p7545
I00
tp7546
a(S'escalator'
p7547
I00
tp7548
a(S'nagged'
p7549
I00
tp7550
a(S'eagerly'
p7551
I00
tp7552
a(S'absorbed'
p7553
I00
tp7554
a(S'shall'
p7555
I00
tp7556
a(S'mouth'
p7557
I00
tp7558
a(S'addict'
p7559
I00
tp7560
a(S'singer'
p7561
I00
tp7562
a(S'upend'
p7563
I00
tp7564
a(S'detriment'
p7565
I00
tp7566
a(S'scream'
p7567
I00
tp7568
a(Vbomb
p7569
I00
tp7570
a(S'blyton'
p7571
I00
tp7572
a(S'dicken'
p7573
I00
tp7574
a(S'lethal'
p7575
I00
tp7576
a(S'tempted'
p7577
I00
tp7578
a(S'recliner'
p7579
I00
tp7580
a(S'orleans'
p7581
I00
tp7582
a(S'layout'
p7583
I00
tp7584
a(S'druggies'
p7585
I00
tp7586
a(S'touched'
p7587
I00
tp7588
a(S'arcona'
p7589
I00
tp7590
a(S'plate'
p7591
I00
tp7592
a(S'plato'
p7593
I00
tp7594
a(S'greene'
p7595
I00
tp7596
a(S'yuzhan'
p7597
I00
tp7598
a(S'clarified'
p7599
I00
tp7600
a(Vsensitivity
p7601
I00
tp7602
a(S'coleridge'
p7603
I00
tp7604
a(S'deadpan'
p7605
I00
tp7606
a(S'lotr'
p7607
I00
tp7608
a(S'score'
p7609
I00
tp7610
a(S'dynastic'
p7611
I00
tp7612
a(S'tyrion'
p7613
I00
tp7614
a(S'wth'
p7615
I00
tp7616
a(S'anticlimactic'
p7617
I00
tp7618
a(S'trickster'
p7619
I00
tp7620
a(S'refinement'
p7621
I00
tp7622
a(S'demanded'
p7623
I00
tp7624
a(S'normandy'
p7625
I00
tp7626
a(S'logic'
p7627
I00
tp7628
a(S'pita'
p7629
I00
tp7630
a(S'federalism'
p7631
I00
tp7632
a(S'adapted'
p7633
I00
tp7634
a(S'vadalma'
p7635
I00
tp7636
a(S'blending'
p7637
I00
tp7638
a(S'progenitor'
p7639
I00
tp7640
a(S'incompetent'
p7641
I00
tp7642
a(S'recomend'
p7643
I00
tp7644
a(S'spit'
p7645
I00
tp7646
a(S'pandering'
p7647
I00
tp7648
a(S'spin'
p7649
I00
tp7650
a(S'maximation'
p7651
I00
tp7652
a(S'vulnerability'
p7653
I00
tp7654
a(S'playes'
p7655
I00
tp7656
a(Vplayer
p7657
I00
tp7658
a(S'charactors'
p7659
I00
tp7660
a(S'insatiable'
p7661
I00
tp7662
a(S'hone'
p7663
I00
tp7664
a(S'damaged'
p7665
I00
tp7666
a(S'ozarks'
p7667
I00
tp7668
a(S'discriptions'
p7669
I00
tp7670
a(S'elliott'
p7671
I00
tp7672
a(S'sumatra'
p7673
I00
tp7674
a(S'boiled'
p7675
I00
tp7676
a(S'effortlessly'
p7677
I00
tp7678
a(S'inadvertently'
p7679
I00
tp7680
a(S'rex'
p7681
I00
tp7682
a(S'althoguh'
p7683
I00
tp7684
a(S'lucas'
p7685
I00
tp7686
a(S'detracted'
p7687
I00
tp7688
a(S'plight'
p7689
I00
tp7690
a(S'caregiver'
p7691
I00
tp7692
a(S'portrayed'
p7693
I00
tp7694
a(S'magically'
p7695
I00
tp7696
a(S'ondine'
p7697
I00
tp7698
a(S'hat'
p7699
I00
tp7700
a(S'posed'
p7701
I00
tp7702
a(S'indicative'
p7703
I00
tp7704
a(S'novelshadow'
p7705
I00
tp7706
a(S'imposed'
p7707
I00
tp7708
a(S'vigilante'
p7709
I00
tp7710
a(S'hinterrupting'
p7711
I00
tp7712
a(S'articulated'
p7713
I00
tp7714
a(S'remind'
p7715
I00
tp7716
a(S'grotesquely'
p7717
I00
tp7718
a(S'attorney'
p7719
I00
tp7720
a(S'creek'
p7721
I00
tp7722
a(S'macabre'
p7723
I00
tp7724
a(S'crown'
p7725
I00
tp7726
a(Vtopping
p7727
I00
tp7728
a(S'captive'
p7729
I00
tp7730
a(S'warring'
p7731
I00
tp7732
a(S'cussler'
p7733
I00
tp7734
a(S'witty'
p7735
I00
tp7736
a(S'binder'
p7737
I00
tp7738
a(S'goldielocks'
p7739
I00
tp7740
a(S'shaken'
p7741
I00
tp7742
a(S'albet'
p7743
I00
tp7744
a(S'adey'
p7745
I00
tp7746
a(S'despair'
p7747
I00
tp7748
a(S'nixon'
p7749
I00
tp7750
a(S'facility'
p7751
I00
tp7752
a(S'marshall'
p7753
I00
tp7754
a(S'surounded'
p7755
I00
tp7756
a(S'soy'
p7757
I00
tp7758
a(S'federal'
p7759
I00
tp7760
a(S'raped'
p7761
I00
tp7762
a(S'avail'
p7763
I00
tp7764
a(S'grasping'
p7765
I00
tp7766
a(S'bdsm'
p7767
I00
tp7768
a(S'forming'
p7769
I00
tp7770
a(S'indivduals'
p7771
I00
tp7772
a(S'circumstantial'
p7773
I00
tp7774
a(S'masquerading'
p7775
I00
tp7776
a(S'antirealists'
p7777
I00
tp7778
a(S'passenger'
p7779
I00
tp7780
a(S'odessay'
p7781
I00
tp7782
a(S'heartbreakingly'
p7783
I00
tp7784
a(S'zane'
p7785
I00
tp7786
a(S'cambodia'
p7787
I00
tp7788
a(S'superfluous'
p7789
I00
tp7790
a(S'roll'
p7791
I00
tp7792
a(S'intend'
p7793
I00
tp7794
a(S'mariner'
p7795
I00
tp7796
a(S'rolling'
p7797
I00
tp7798
a(S'fastened'
p7799
I00
tp7800
a(S'beamed'
p7801
I00
tp7802
a(S'duros'
p7803
I00
tp7804
a(Vgown
p7805
I00
tp7806
a(S'osu'
p7807
I00
tp7808
a(S'jarring'
p7809
I00
tp7810
a(S'uneven'
p7811
I00
tp7812
a(Vmacho
p7813
I00
tp7814
a(S'solves'
p7815
I00
tp7816
a(S'tear'
p7817
I00
tp7818
a(S'engrossing'
p7819
I00
tp7820
a(S'droid'
p7821
I00
tp7822
a(Voccurrence
p7823
I00
tp7824
a(S'chopping'
p7825
I00
tp7826
a(S'incrementally'
p7827
I00
tp7828
a(S'educate'
p7829
I00
tp7830
a(S'celebrated'
p7831
I00
tp7832
a(S'realizing'
p7833
I00
tp7834
a(S'melo'
p7835
I00
tp7836
a(S'boost'
p7837
I00
tp7838
a(S'tssking'
p7839
I00
tp7840
a(S'honour'
p7841
I00
tp7842
a(S'businessbackground'
p7843
I00
tp7844
a(S'commonly'
p7845
I00
tp7846
a(S'accomplished'
p7847
I00
tp7848
a(S'reclaim'
p7849
I00
tp7850
a(S'coinciding'
p7851
I00
tp7852
a(S'forefront'
p7853
I00
tp7854
a(S'tightly'
p7855
I00
tp7856
a(S'opposed'
p7857
I00
tp7858
a(S'scope'
p7859
I00
tp7860
a(S'familar'
p7861
I00
tp7862
a(S'wicked'
p7863
I00
tp7864
a(S'apparent'
p7865
I00
tp7866
a(S'lamor'
p7867
I00
tp7868
a(S'assimilation'
p7869
I00
tp7870
a(S'satellitegerry'
p7871
I00
tp7872
a(Vappendix
p7873
I00
tp7874
a(Vvirtue
p7875
I00
tp7876
a(S'involve'
p7877
I00
tp7878
a(S'inflamed'
p7879
I00
tp7880
a(S'printing'
p7881
I00
tp7882
a(S'albright'
p7883
I00
tp7884
a(S'admired'
p7885
I00
tp7886
a(S'bibliographical'
p7887
I00
tp7888
a(S'monitoring'
p7889
I00
tp7890
a(S'savor'
p7891
I00
tp7892
a(S'sudden'
p7893
I00
tp7894
a(S'posthumas'
p7895
I00
tp7896
a(S'explores'
p7897
I00
tp7898
a(Vexplorer
p7899
I00
tp7900
a(S'mythos'
p7901
I00
tp7902
a(S'explored'
p7903
I00
tp7904
a(S'improving'
p7905
I00
tp7906
a(S'dove'
p7907
I00
tp7908
a(S'eelysa'
p7909
I00
tp7910
a(S'surfing'
p7911
I00
tp7912
a(S'conscious'
p7913
I00
tp7914
a(S'aseptically'
p7915
I00
tp7916
a(S'biographical'
p7917
I00
tp7918
a(S'ghostwriter'
p7919
I00
tp7920
a(S'sc'
p7921
I00
tp7922
a(S'sa'
p7923
I00
tp7924
a(S'ocassionally'
p7925
I00
tp7926
a(S'drunken'
p7927
I00
tp7928
a(Vbush
p7929
I00
tp7930
a(Vfootstep
p7931
I00
tp7932
a(S'yearn'
p7933
I00
tp7934
a(S'omitting'
p7935
I00
tp7936
a(Vtendency
p7937
I00
tp7938
a(S'britten'
p7939
I00
tp7940
a(S'jim'
p7941
I00
tp7942
a(S'methodology'
p7943
I00
tp7944
a(S'suspension'
p7945
I00
tp7946
a(S'instantly'
p7947
I00
tp7948
a(S'arriving'
p7949
I00
tp7950
a(S'twilight'
p7951
I00
tp7952
a(S'dido'
p7953
I00
tp7954
a(S'quarter'
p7955
I00
tp7956
a(S'revere'
p7957
I00
tp7958
a(S'honduras'
p7959
I00
tp7960
a(S'edify'
p7961
I00
tp7962
a(S'beloved'
p7963
I00
tp7964
a(S'irina'
p7965
I00
tp7966
a(S'giddy'
p7967
I00
tp7968
a(S'astray'
p7969
I00
tp7970
a(S'suggesting'
p7971
I00
tp7972
a(Vformula
p7973
I00
tp7974
a(S'complicates'
p7975
I00
tp7976
a(S'bookie'
p7977
I00
tp7978
a(S'huevos'
p7979
I00
tp7980
a(S'seventh'
p7981
I00
tp7982
a(S'seventy'
p7983
I00
tp7984
a(S'buisiness'
p7985
I00
tp7986
a(S'boettke'
p7987
I00
tp7988
a(S'jumbled'
p7989
I00
tp7990
a(S'snoozoid'
p7991
I00
tp7992
a(S'submit'
p7993
I00
tp7994
a(S'bbc'
p7995
I00
tp7996
a(S'structured'
p7997
I00
tp7998
a(S'draft'
p7999
I00
tp8000
a.